
bin\Debug\clankerportaalkraan.elf:     file format elf32-avr

Sections:
Idx Name          Size      VMA       LMA       File off  Algn
  0 .data         00000076  00800200  00001036  000010ea  2**0
                  CONTENTS, ALLOC, LOAD, DATA
  1 .text         00001036  00000000  00000000  000000b4  2**1
                  CONTENTS, ALLOC, LOAD, READONLY, CODE
  2 .bss          00000011  00800276  00800276  00001160  2**0
                  ALLOC
  3 .fuse         00000003  00820000  00820000  00001160  2**0
                  CONTENTS, ALLOC, LOAD, DATA
  4 .comment      00000012  00000000  00000000  00001163  2**0
                  CONTENTS, READONLY
  5 .note.gnu.avr.deviceinfo 00000040  00000000  00000000  00001178  2**2
                  CONTENTS, READONLY, OCTETS
  6 .debug_aranges 00000098  00000000  00000000  000011b8  2**3
                  CONTENTS, READONLY, DEBUGGING, OCTETS
  7 .debug_info   0000113e  00000000  00000000  00001250  2**0
                  CONTENTS, READONLY, DEBUGGING, OCTETS
  8 .debug_abbrev 00000d56  00000000  00000000  0000238e  2**0
                  CONTENTS, READONLY, DEBUGGING, OCTETS
  9 .debug_line   00001297  00000000  00000000  000030e4  2**0
                  CONTENTS, READONLY, DEBUGGING, OCTETS
 10 .debug_frame  00000334  00000000  00000000  0000437c  2**2
                  CONTENTS, READONLY, DEBUGGING, OCTETS
 11 .debug_str    000006d7  00000000  00000000  000046b0  2**0
                  CONTENTS, READONLY, DEBUGGING, OCTETS
 12 .debug_line_str 00000150  00000000  00000000  00004d87  2**0
                  CONTENTS, READONLY, DEBUGGING, OCTETS

Disassembly of section .text:

00000000 <__vectors>:
       0:	0c 94 72 00 	jmp	0xe4	; 0xe4 <__ctors_end>
       4:	0c 94 93 00 	jmp	0x126	; 0x126 <__bad_interrupt>
       8:	0c 94 93 00 	jmp	0x126	; 0x126 <__bad_interrupt>
       c:	0c 94 93 00 	jmp	0x126	; 0x126 <__bad_interrupt>
      10:	0c 94 93 00 	jmp	0x126	; 0x126 <__bad_interrupt>
      14:	0c 94 93 00 	jmp	0x126	; 0x126 <__bad_interrupt>
      18:	0c 94 93 00 	jmp	0x126	; 0x126 <__bad_interrupt>
      1c:	0c 94 93 00 	jmp	0x126	; 0x126 <__bad_interrupt>
      20:	0c 94 93 00 	jmp	0x126	; 0x126 <__bad_interrupt>
      24:	0c 94 93 00 	jmp	0x126	; 0x126 <__bad_interrupt>
      28:	0c 94 93 00 	jmp	0x126	; 0x126 <__bad_interrupt>
      2c:	0c 94 93 00 	jmp	0x126	; 0x126 <__bad_interrupt>
      30:	0c 94 93 00 	jmp	0x126	; 0x126 <__bad_interrupt>
      34:	0c 94 93 00 	jmp	0x126	; 0x126 <__bad_interrupt>
      38:	0c 94 93 00 	jmp	0x126	; 0x126 <__bad_interrupt>
      3c:	0c 94 93 00 	jmp	0x126	; 0x126 <__bad_interrupt>
      40:	0c 94 93 00 	jmp	0x126	; 0x126 <__bad_interrupt>
      44:	0c 94 93 00 	jmp	0x126	; 0x126 <__bad_interrupt>
      48:	0c 94 93 00 	jmp	0x126	; 0x126 <__bad_interrupt>
      4c:	0c 94 93 00 	jmp	0x126	; 0x126 <__bad_interrupt>
      50:	0c 94 93 00 	jmp	0x126	; 0x126 <__bad_interrupt>
      54:	0c 94 93 00 	jmp	0x126	; 0x126 <__bad_interrupt>
      58:	0c 94 93 00 	jmp	0x126	; 0x126 <__bad_interrupt>
      5c:	0c 94 93 00 	jmp	0x126	; 0x126 <__bad_interrupt>
      60:	0c 94 93 00 	jmp	0x126	; 0x126 <__bad_interrupt>
      64:	0c 94 93 00 	jmp	0x126	; 0x126 <__bad_interrupt>
      68:	0c 94 93 00 	jmp	0x126	; 0x126 <__bad_interrupt>
      6c:	0c 94 93 00 	jmp	0x126	; 0x126 <__bad_interrupt>
      70:	0c 94 93 00 	jmp	0x126	; 0x126 <__bad_interrupt>
      74:	0c 94 93 00 	jmp	0x126	; 0x126 <__bad_interrupt>
      78:	0c 94 93 00 	jmp	0x126	; 0x126 <__bad_interrupt>
      7c:	0c 94 93 00 	jmp	0x126	; 0x126 <__bad_interrupt>
      80:	0c 94 93 00 	jmp	0x126	; 0x126 <__bad_interrupt>
      84:	0c 94 93 00 	jmp	0x126	; 0x126 <__bad_interrupt>
      88:	0c 94 93 00 	jmp	0x126	; 0x126 <__bad_interrupt>
      8c:	0c 94 93 00 	jmp	0x126	; 0x126 <__bad_interrupt>
      90:	0c 94 93 00 	jmp	0x126	; 0x126 <__bad_interrupt>
      94:	0c 94 93 00 	jmp	0x126	; 0x126 <__bad_interrupt>
      98:	0c 94 93 00 	jmp	0x126	; 0x126 <__bad_interrupt>
      9c:	0c 94 93 00 	jmp	0x126	; 0x126 <__bad_interrupt>
      a0:	0c 94 93 00 	jmp	0x126	; 0x126 <__bad_interrupt>
      a4:	0c 94 93 00 	jmp	0x126	; 0x126 <__bad_interrupt>
      a8:	0c 94 93 00 	jmp	0x126	; 0x126 <__bad_interrupt>
      ac:	0c 94 93 00 	jmp	0x126	; 0x126 <__bad_interrupt>
      b0:	0c 94 93 00 	jmp	0x126	; 0x126 <__bad_interrupt>
      b4:	0c 94 93 00 	jmp	0x126	; 0x126 <__bad_interrupt>
      b8:	0c 94 93 00 	jmp	0x126	; 0x126 <__bad_interrupt>
      bc:	0c 94 93 00 	jmp	0x126	; 0x126 <__bad_interrupt>
      c0:	0c 94 93 00 	jmp	0x126	; 0x126 <__bad_interrupt>
      c4:	0c 94 93 00 	jmp	0x126	; 0x126 <__bad_interrupt>
      c8:	0c 94 93 00 	jmp	0x126	; 0x126 <__bad_interrupt>
      cc:	0c 94 93 00 	jmp	0x126	; 0x126 <__bad_interrupt>
      d0:	0c 94 93 00 	jmp	0x126	; 0x126 <__bad_interrupt>
      d4:	0c 94 93 00 	jmp	0x126	; 0x126 <__bad_interrupt>
      d8:	0c 94 93 00 	jmp	0x126	; 0x126 <__bad_interrupt>
      dc:	0c 94 93 00 	jmp	0x126	; 0x126 <__bad_interrupt>
      e0:	0c 94 93 00 	jmp	0x126	; 0x126 <__bad_interrupt>

000000e4 <__ctors_end>:
      e4:	11 24       	eor	r1, r1
      e6:	1f be       	out	0x3f, r1	; 63
      e8:	cf ef       	ldi	r28, 0xFF	; 255
      ea:	d1 e2       	ldi	r29, 0x21	; 33
      ec:	de bf       	out	0x3e, r29	; 62
      ee:	cd bf       	out	0x3d, r28	; 61
      f0:	00 e0       	ldi	r16, 0x00	; 0
      f2:	0c bf       	out	0x3c, r16	; 60

000000f4 <__do_copy_data>:
      f4:	12 e0       	ldi	r17, 0x02	; 2

000000f6 <.Loc.1>:
      f6:	a0 e0       	ldi	r26, 0x00	; 0

000000f8 <.Loc.2>:
      f8:	b2 e0       	ldi	r27, 0x02	; 2

000000fa <.Loc.3>:
      fa:	e6 e3       	ldi	r30, 0x36	; 54

000000fc <.Loc.4>:
      fc:	f0 e1       	ldi	r31, 0x10	; 16

000000fe <.Loc.5>:
      fe:	00 e0       	ldi	r16, 0x00	; 0

00000100 <.Loc.6>:
     100:	0b bf       	out	0x3b, r16	; 59

00000102 <.Loc.7>:
     102:	02 c0       	rjmp	.+4      	; 0x108 <.L__do_copy_data_start>

00000104 <.L__do_copy_data_loop>:
     104:	07 90       	elpm	r0, Z+

00000106 <.Loc.9>:
     106:	0d 92       	st	X+, r0

00000108 <.L__do_copy_data_start>:
     108:	a6 37       	cpi	r26, 0x76	; 118

0000010a <.Loc.11>:
     10a:	b1 07       	cpc	r27, r17

0000010c <.Loc.12>:
     10c:	d9 f7       	brne	.-10     	; 0x104 <.L__do_copy_data_loop>

0000010e <__do_clear_bss>:
     10e:	22 e0       	ldi	r18, 0x02	; 2

00000110 <.Loc.1>:
     110:	a6 e7       	ldi	r26, 0x76	; 118

00000112 <.Loc.2>:
     112:	b2 e0       	ldi	r27, 0x02	; 2

00000114 <.Loc.3>:
     114:	01 c0       	rjmp	.+2      	; 0x118 <.Loc.5>

00000116 <.Loc.4>:
     116:	1d 92       	st	X+, r1

00000118 <.Loc.5>:
     118:	a7 38       	cpi	r26, 0x87	; 135

0000011a <.Loc.6>:
     11a:	b2 07       	cpc	r27, r18

0000011c <.Loc.7>:
     11c:	e1 f7       	brne	.-8      	; 0x116 <.Loc.4>

0000011e <L0^A>:
     11e:	0e 94 e0 07 	call	0xfc0	; 0xfc0 <main>
     122:	0c 94 19 08 	jmp	0x1032	; 0x1032 <_exit>

00000126 <__bad_interrupt>:
     126:	0c 94 00 00 	jmp	0	; 0x0 <__vectors>

0000012a <xmotorconfic>:
#define z_L_EN PK5
#define z_RPWM PE4
#define z_LPWM PE5

void xmotorconfic(void)
{
     12a:	cf 93       	push	r28
     12c:	df 93       	push	r29
     12e:	cd b7       	in	r28, 0x3d	; 61
     130:	de b7       	in	r29, 0x3e	; 62

00000132 <.Loc.1>:
    //maak EN and PWM ports output
    DDRA |= (1 << x_R_EN);
     132:	81 e2       	ldi	r24, 0x21	; 33
     134:	90 e0       	ldi	r25, 0x00	; 0
     136:	fc 01       	movw	r30, r24
     138:	20 81       	ld	r18, Z
     13a:	81 e2       	ldi	r24, 0x21	; 33
     13c:	90 e0       	ldi	r25, 0x00	; 0

0000013e <.Loc.2>:
     13e:	20 61       	ori	r18, 0x10	; 16
     140:	fc 01       	movw	r30, r24
     142:	20 83       	st	Z, r18

00000144 <.Loc.3>:
    DDRA |= (1 << x_L_EN);
     144:	81 e2       	ldi	r24, 0x21	; 33
     146:	90 e0       	ldi	r25, 0x00	; 0
     148:	fc 01       	movw	r30, r24
     14a:	20 81       	ld	r18, Z
     14c:	81 e2       	ldi	r24, 0x21	; 33
     14e:	90 e0       	ldi	r25, 0x00	; 0

00000150 <.Loc.4>:
     150:	20 62       	ori	r18, 0x20	; 32
     152:	fc 01       	movw	r30, r24
     154:	20 83       	st	Z, r18

00000156 <.Loc.5>:
    DDRH |= (1 << x_RPWM);
     156:	81 e0       	ldi	r24, 0x01	; 1
     158:	91 e0       	ldi	r25, 0x01	; 1
     15a:	fc 01       	movw	r30, r24
     15c:	20 81       	ld	r18, Z
     15e:	81 e0       	ldi	r24, 0x01	; 1
     160:	91 e0       	ldi	r25, 0x01	; 1

00000162 <.Loc.6>:
     162:	28 60       	ori	r18, 0x08	; 8
     164:	fc 01       	movw	r30, r24
     166:	20 83       	st	Z, r18

00000168 <.Loc.7>:
    DDRH |= (1 << x_LPWM);
     168:	81 e0       	ldi	r24, 0x01	; 1
     16a:	91 e0       	ldi	r25, 0x01	; 1
     16c:	fc 01       	movw	r30, r24
     16e:	20 81       	ld	r18, Z
     170:	81 e0       	ldi	r24, 0x01	; 1
     172:	91 e0       	ldi	r25, 0x01	; 1

00000174 <.Loc.8>:
     174:	20 61       	ori	r18, 0x10	; 16
     176:	fc 01       	movw	r30, r24
     178:	20 83       	st	Z, r18

0000017a <.Loc.9>:

    //maak alles bij start uit
    PORTA &= ~(1 << x_R_EN);
     17a:	82 e2       	ldi	r24, 0x22	; 34
     17c:	90 e0       	ldi	r25, 0x00	; 0
     17e:	fc 01       	movw	r30, r24
     180:	20 81       	ld	r18, Z

00000182 <.Loc.10>:
     182:	82 e2       	ldi	r24, 0x22	; 34
     184:	90 e0       	ldi	r25, 0x00	; 0

00000186 <.Loc.11>:
     186:	2f 7e       	andi	r18, 0xEF	; 239
     188:	fc 01       	movw	r30, r24
     18a:	20 83       	st	Z, r18

0000018c <.Loc.12>:
    PORTA &= ~(1 << x_L_EN);
     18c:	82 e2       	ldi	r24, 0x22	; 34
     18e:	90 e0       	ldi	r25, 0x00	; 0
     190:	fc 01       	movw	r30, r24
     192:	20 81       	ld	r18, Z

00000194 <.Loc.13>:
     194:	82 e2       	ldi	r24, 0x22	; 34
     196:	90 e0       	ldi	r25, 0x00	; 0

00000198 <.Loc.14>:
     198:	2f 7d       	andi	r18, 0xDF	; 223
     19a:	fc 01       	movw	r30, r24
     19c:	20 83       	st	Z, r18

0000019e <.Loc.15>:
    PORTH &= ~(1 << x_RPWM);
     19e:	82 e0       	ldi	r24, 0x02	; 2
     1a0:	91 e0       	ldi	r25, 0x01	; 1
     1a2:	fc 01       	movw	r30, r24
     1a4:	20 81       	ld	r18, Z

000001a6 <.Loc.16>:
     1a6:	82 e0       	ldi	r24, 0x02	; 2
     1a8:	91 e0       	ldi	r25, 0x01	; 1

000001aa <.Loc.17>:
     1aa:	27 7f       	andi	r18, 0xF7	; 247
     1ac:	fc 01       	movw	r30, r24
     1ae:	20 83       	st	Z, r18

000001b0 <.Loc.18>:
    PORTH &= ~(1 << x_LPWM);
     1b0:	82 e0       	ldi	r24, 0x02	; 2
     1b2:	91 e0       	ldi	r25, 0x01	; 1
     1b4:	fc 01       	movw	r30, r24
     1b6:	20 81       	ld	r18, Z

000001b8 <.Loc.19>:
     1b8:	82 e0       	ldi	r24, 0x02	; 2
     1ba:	91 e0       	ldi	r25, 0x01	; 1

000001bc <.Loc.20>:
     1bc:	2f 7e       	andi	r18, 0xEF	; 239
     1be:	fc 01       	movw	r30, r24
     1c0:	20 83       	st	Z, r18

000001c2 <.Loc.21>:
}
     1c2:	00 00       	nop
     1c4:	df 91       	pop	r29
     1c6:	cf 91       	pop	r28
     1c8:	08 95       	ret

000001ca <ymotorconfic>:
void ymotorconfic(void)
{
     1ca:	cf 93       	push	r28
     1cc:	df 93       	push	r29
     1ce:	cd b7       	in	r28, 0x3d	; 61
     1d0:	de b7       	in	r29, 0x3e	; 62

000001d2 <.Loc.23>:
    //maak EN and PWM ports output
    DDRA |= (1 << y_R_EN);
     1d2:	81 e2       	ldi	r24, 0x21	; 33
     1d4:	90 e0       	ldi	r25, 0x00	; 0
     1d6:	fc 01       	movw	r30, r24
     1d8:	20 81       	ld	r18, Z
     1da:	81 e2       	ldi	r24, 0x21	; 33
     1dc:	90 e0       	ldi	r25, 0x00	; 0

000001de <.Loc.24>:
     1de:	24 60       	ori	r18, 0x04	; 4
     1e0:	fc 01       	movw	r30, r24
     1e2:	20 83       	st	Z, r18

000001e4 <.Loc.25>:
    DDRA |= (1 << y_L_EN);
     1e4:	81 e2       	ldi	r24, 0x21	; 33
     1e6:	90 e0       	ldi	r25, 0x00	; 0
     1e8:	fc 01       	movw	r30, r24
     1ea:	20 81       	ld	r18, Z
     1ec:	81 e2       	ldi	r24, 0x21	; 33
     1ee:	90 e0       	ldi	r25, 0x00	; 0

000001f0 <.Loc.26>:
     1f0:	28 60       	ori	r18, 0x08	; 8
     1f2:	fc 01       	movw	r30, r24
     1f4:	20 83       	st	Z, r18

000001f6 <.Loc.27>:
    DDRE |= (1 << y_RPWM);
     1f6:	8d e2       	ldi	r24, 0x2D	; 45
     1f8:	90 e0       	ldi	r25, 0x00	; 0
     1fa:	fc 01       	movw	r30, r24
     1fc:	20 81       	ld	r18, Z
     1fe:	8d e2       	ldi	r24, 0x2D	; 45
     200:	90 e0       	ldi	r25, 0x00	; 0

00000202 <.Loc.28>:
     202:	28 60       	ori	r18, 0x08	; 8
     204:	fc 01       	movw	r30, r24
     206:	20 83       	st	Z, r18

00000208 <.Loc.29>:
    DDRG |= (1 << y_LPWM);
     208:	83 e3       	ldi	r24, 0x33	; 51
     20a:	90 e0       	ldi	r25, 0x00	; 0
     20c:	fc 01       	movw	r30, r24
     20e:	20 81       	ld	r18, Z
     210:	83 e3       	ldi	r24, 0x33	; 51
     212:	90 e0       	ldi	r25, 0x00	; 0

00000214 <.Loc.30>:
     214:	20 62       	ori	r18, 0x20	; 32
     216:	fc 01       	movw	r30, r24
     218:	20 83       	st	Z, r18

0000021a <.Loc.31>:

    //maak alles bij start uit
    PORTA &= ~(1 << y_R_EN);
     21a:	82 e2       	ldi	r24, 0x22	; 34
     21c:	90 e0       	ldi	r25, 0x00	; 0
     21e:	fc 01       	movw	r30, r24
     220:	20 81       	ld	r18, Z

00000222 <.Loc.32>:
     222:	82 e2       	ldi	r24, 0x22	; 34
     224:	90 e0       	ldi	r25, 0x00	; 0

00000226 <.Loc.33>:
     226:	2b 7f       	andi	r18, 0xFB	; 251
     228:	fc 01       	movw	r30, r24
     22a:	20 83       	st	Z, r18

0000022c <.Loc.34>:
    PORTA &= ~(1 << y_L_EN);
     22c:	82 e2       	ldi	r24, 0x22	; 34
     22e:	90 e0       	ldi	r25, 0x00	; 0
     230:	fc 01       	movw	r30, r24
     232:	20 81       	ld	r18, Z

00000234 <.Loc.35>:
     234:	82 e2       	ldi	r24, 0x22	; 34
     236:	90 e0       	ldi	r25, 0x00	; 0

00000238 <.Loc.36>:
     238:	27 7f       	andi	r18, 0xF7	; 247
     23a:	fc 01       	movw	r30, r24
     23c:	20 83       	st	Z, r18

0000023e <.Loc.37>:
    PORTE &= ~(1 << y_RPWM);
     23e:	8e e2       	ldi	r24, 0x2E	; 46
     240:	90 e0       	ldi	r25, 0x00	; 0
     242:	fc 01       	movw	r30, r24
     244:	20 81       	ld	r18, Z

00000246 <.Loc.38>:
     246:	8e e2       	ldi	r24, 0x2E	; 46
     248:	90 e0       	ldi	r25, 0x00	; 0

0000024a <.Loc.39>:
     24a:	27 7f       	andi	r18, 0xF7	; 247
     24c:	fc 01       	movw	r30, r24
     24e:	20 83       	st	Z, r18

00000250 <.Loc.40>:
    PORTG &= ~(1 << y_LPWM);
     250:	84 e3       	ldi	r24, 0x34	; 52
     252:	90 e0       	ldi	r25, 0x00	; 0
     254:	fc 01       	movw	r30, r24
     256:	20 81       	ld	r18, Z

00000258 <.Loc.41>:
     258:	84 e3       	ldi	r24, 0x34	; 52
     25a:	90 e0       	ldi	r25, 0x00	; 0

0000025c <.Loc.42>:
     25c:	2f 7d       	andi	r18, 0xDF	; 223
     25e:	fc 01       	movw	r30, r24
     260:	20 83       	st	Z, r18

00000262 <.Loc.43>:
}
     262:	00 00       	nop
     264:	df 91       	pop	r29
     266:	cf 91       	pop	r28
     268:	08 95       	ret

0000026a <zmotorconfic>:
void zmotorconfic(void)
{
     26a:	cf 93       	push	r28
     26c:	df 93       	push	r29
     26e:	cd b7       	in	r28, 0x3d	; 61
     270:	de b7       	in	r29, 0x3e	; 62

00000272 <.Loc.45>:
    //maak EN and PWM ports output
    DDRK |= (1 << z_R_EN);
     272:	87 e0       	ldi	r24, 0x07	; 7
     274:	91 e0       	ldi	r25, 0x01	; 1
     276:	fc 01       	movw	r30, r24
     278:	20 81       	ld	r18, Z
     27a:	87 e0       	ldi	r24, 0x07	; 7
     27c:	91 e0       	ldi	r25, 0x01	; 1

0000027e <.Loc.46>:
     27e:	20 61       	ori	r18, 0x10	; 16
     280:	fc 01       	movw	r30, r24
     282:	20 83       	st	Z, r18

00000284 <.Loc.47>:
    DDRK |= (1 << z_L_EN);
     284:	87 e0       	ldi	r24, 0x07	; 7
     286:	91 e0       	ldi	r25, 0x01	; 1
     288:	fc 01       	movw	r30, r24
     28a:	20 81       	ld	r18, Z
     28c:	87 e0       	ldi	r24, 0x07	; 7
     28e:	91 e0       	ldi	r25, 0x01	; 1

00000290 <.Loc.48>:
     290:	20 62       	ori	r18, 0x20	; 32
     292:	fc 01       	movw	r30, r24
     294:	20 83       	st	Z, r18

00000296 <.Loc.49>:
    DDRE |= (1 << z_RPWM);
     296:	8d e2       	ldi	r24, 0x2D	; 45
     298:	90 e0       	ldi	r25, 0x00	; 0
     29a:	fc 01       	movw	r30, r24
     29c:	20 81       	ld	r18, Z
     29e:	8d e2       	ldi	r24, 0x2D	; 45
     2a0:	90 e0       	ldi	r25, 0x00	; 0

000002a2 <.Loc.50>:
     2a2:	20 61       	ori	r18, 0x10	; 16
     2a4:	fc 01       	movw	r30, r24
     2a6:	20 83       	st	Z, r18

000002a8 <.Loc.51>:
    DDRE |= (1 << z_LPWM);
     2a8:	8d e2       	ldi	r24, 0x2D	; 45
     2aa:	90 e0       	ldi	r25, 0x00	; 0
     2ac:	fc 01       	movw	r30, r24
     2ae:	20 81       	ld	r18, Z
     2b0:	8d e2       	ldi	r24, 0x2D	; 45
     2b2:	90 e0       	ldi	r25, 0x00	; 0

000002b4 <.Loc.52>:
     2b4:	20 62       	ori	r18, 0x20	; 32
     2b6:	fc 01       	movw	r30, r24
     2b8:	20 83       	st	Z, r18

000002ba <.Loc.53>:

    //maak alles bij start uit
    PORTK &= ~(1 << z_R_EN);
     2ba:	88 e0       	ldi	r24, 0x08	; 8
     2bc:	91 e0       	ldi	r25, 0x01	; 1
     2be:	fc 01       	movw	r30, r24
     2c0:	20 81       	ld	r18, Z

000002c2 <.Loc.54>:
     2c2:	88 e0       	ldi	r24, 0x08	; 8
     2c4:	91 e0       	ldi	r25, 0x01	; 1

000002c6 <.Loc.55>:
     2c6:	2f 7e       	andi	r18, 0xEF	; 239
     2c8:	fc 01       	movw	r30, r24
     2ca:	20 83       	st	Z, r18

000002cc <.Loc.56>:
    PORTK &= ~(1 << z_L_EN);
     2cc:	88 e0       	ldi	r24, 0x08	; 8
     2ce:	91 e0       	ldi	r25, 0x01	; 1
     2d0:	fc 01       	movw	r30, r24
     2d2:	20 81       	ld	r18, Z

000002d4 <.Loc.57>:
     2d4:	88 e0       	ldi	r24, 0x08	; 8
     2d6:	91 e0       	ldi	r25, 0x01	; 1

000002d8 <.Loc.58>:
     2d8:	2f 7d       	andi	r18, 0xDF	; 223
     2da:	fc 01       	movw	r30, r24
     2dc:	20 83       	st	Z, r18

000002de <.Loc.59>:
    PORTE &= ~(1 << z_RPWM);
     2de:	8e e2       	ldi	r24, 0x2E	; 46
     2e0:	90 e0       	ldi	r25, 0x00	; 0
     2e2:	fc 01       	movw	r30, r24
     2e4:	20 81       	ld	r18, Z

000002e6 <.Loc.60>:
     2e6:	8e e2       	ldi	r24, 0x2E	; 46
     2e8:	90 e0       	ldi	r25, 0x00	; 0

000002ea <.Loc.61>:
     2ea:	2f 7e       	andi	r18, 0xEF	; 239
     2ec:	fc 01       	movw	r30, r24
     2ee:	20 83       	st	Z, r18

000002f0 <.Loc.62>:
    PORTE &= ~(1 << z_LPWM);
     2f0:	8e e2       	ldi	r24, 0x2E	; 46
     2f2:	90 e0       	ldi	r25, 0x00	; 0
     2f4:	fc 01       	movw	r30, r24
     2f6:	20 81       	ld	r18, Z

000002f8 <.Loc.63>:
     2f8:	8e e2       	ldi	r24, 0x2E	; 46
     2fa:	90 e0       	ldi	r25, 0x00	; 0

000002fc <.Loc.64>:
     2fc:	2f 7d       	andi	r18, 0xDF	; 223
     2fe:	fc 01       	movw	r30, r24
     300:	20 83       	st	Z, r18

00000302 <.Loc.65>:
}
     302:	00 00       	nop
     304:	df 91       	pop	r29
     306:	cf 91       	pop	r28
     308:	08 95       	ret

0000030a <xmotorpositief>:
#ifndef motoraansturing.h
#define motoraansturing.h

void xmotorpositief() // x motor postief draaien via Hbrug
{
     30a:	cf 93       	push	r28
     30c:	df 93       	push	r29
     30e:	cd b7       	in	r28, 0x3d	; 61
     310:	de b7       	in	r29, 0x3e	; 62

00000312 <.Loc.67>:
        PORTA |= (1 << x_R_EN);
     312:	82 e2       	ldi	r24, 0x22	; 34
     314:	90 e0       	ldi	r25, 0x00	; 0
     316:	fc 01       	movw	r30, r24
     318:	20 81       	ld	r18, Z
     31a:	82 e2       	ldi	r24, 0x22	; 34
     31c:	90 e0       	ldi	r25, 0x00	; 0

0000031e <.Loc.68>:
     31e:	20 61       	ori	r18, 0x10	; 16
     320:	fc 01       	movw	r30, r24
     322:	20 83       	st	Z, r18

00000324 <.Loc.69>:
        PORTA |= (1 << x_L_EN);
     324:	82 e2       	ldi	r24, 0x22	; 34
     326:	90 e0       	ldi	r25, 0x00	; 0
     328:	fc 01       	movw	r30, r24
     32a:	20 81       	ld	r18, Z
     32c:	82 e2       	ldi	r24, 0x22	; 34
     32e:	90 e0       	ldi	r25, 0x00	; 0

00000330 <.Loc.70>:
     330:	20 62       	ori	r18, 0x20	; 32
     332:	fc 01       	movw	r30, r24
     334:	20 83       	st	Z, r18

00000336 <.Loc.71>:
        PORTH |= (1 << x_RPWM);
     336:	82 e0       	ldi	r24, 0x02	; 2
     338:	91 e0       	ldi	r25, 0x01	; 1
     33a:	fc 01       	movw	r30, r24
     33c:	20 81       	ld	r18, Z
     33e:	82 e0       	ldi	r24, 0x02	; 2
     340:	91 e0       	ldi	r25, 0x01	; 1

00000342 <.Loc.72>:
     342:	28 60       	ori	r18, 0x08	; 8
     344:	fc 01       	movw	r30, r24
     346:	20 83       	st	Z, r18

00000348 <.Loc.73>:
        PORTH &= ~(1 << x_LPWM);
     348:	82 e0       	ldi	r24, 0x02	; 2
     34a:	91 e0       	ldi	r25, 0x01	; 1
     34c:	fc 01       	movw	r30, r24
     34e:	20 81       	ld	r18, Z

00000350 <.Loc.74>:
     350:	82 e0       	ldi	r24, 0x02	; 2
     352:	91 e0       	ldi	r25, 0x01	; 1

00000354 <.Loc.75>:
     354:	2f 7e       	andi	r18, 0xEF	; 239
     356:	fc 01       	movw	r30, r24
     358:	20 83       	st	Z, r18

0000035a <.Loc.76>:
}
     35a:	00 00       	nop
     35c:	df 91       	pop	r29
     35e:	cf 91       	pop	r28
     360:	08 95       	ret

00000362 <xmotoruit>:
void xmotoruit() // stopt X motor met draaien via H brug
{
     362:	cf 93       	push	r28
     364:	df 93       	push	r29
     366:	cd b7       	in	r28, 0x3d	; 61
     368:	de b7       	in	r29, 0x3e	; 62

0000036a <.Loc.78>:
    PORTA &= ~((1 << x_R_EN) | (1 << x_L_EN));
     36a:	82 e2       	ldi	r24, 0x22	; 34
     36c:	90 e0       	ldi	r25, 0x00	; 0
     36e:	fc 01       	movw	r30, r24
     370:	20 81       	ld	r18, Z

00000372 <.Loc.79>:
     372:	82 e2       	ldi	r24, 0x22	; 34
     374:	90 e0       	ldi	r25, 0x00	; 0

00000376 <.Loc.80>:
     376:	2f 7c       	andi	r18, 0xCF	; 207
     378:	fc 01       	movw	r30, r24
     37a:	20 83       	st	Z, r18

0000037c <.Loc.81>:
    PORTH &= ~((1 << x_RPWM) | (1 << x_LPWM));
     37c:	82 e0       	ldi	r24, 0x02	; 2
     37e:	91 e0       	ldi	r25, 0x01	; 1
     380:	fc 01       	movw	r30, r24
     382:	20 81       	ld	r18, Z

00000384 <.Loc.82>:
     384:	82 e0       	ldi	r24, 0x02	; 2
     386:	91 e0       	ldi	r25, 0x01	; 1

00000388 <.Loc.83>:
     388:	27 7e       	andi	r18, 0xE7	; 231
     38a:	fc 01       	movw	r30, r24
     38c:	20 83       	st	Z, r18

0000038e <.Loc.84>:
}
     38e:	00 00       	nop
     390:	df 91       	pop	r29
     392:	cf 91       	pop	r28
     394:	08 95       	ret

00000396 <xmotornegatief>:
void xmotornegatief()// x motor negatief draaien via Hbrug
{
     396:	cf 93       	push	r28
     398:	df 93       	push	r29
     39a:	cd b7       	in	r28, 0x3d	; 61
     39c:	de b7       	in	r29, 0x3e	; 62

0000039e <.Loc.86>:
    PORTA |= (1 << x_R_EN);
     39e:	82 e2       	ldi	r24, 0x22	; 34
     3a0:	90 e0       	ldi	r25, 0x00	; 0
     3a2:	fc 01       	movw	r30, r24
     3a4:	20 81       	ld	r18, Z
     3a6:	82 e2       	ldi	r24, 0x22	; 34
     3a8:	90 e0       	ldi	r25, 0x00	; 0

000003aa <.Loc.87>:
     3aa:	20 61       	ori	r18, 0x10	; 16
     3ac:	fc 01       	movw	r30, r24
     3ae:	20 83       	st	Z, r18

000003b0 <.Loc.88>:
    PORTA |= (1 << x_L_EN);
     3b0:	82 e2       	ldi	r24, 0x22	; 34
     3b2:	90 e0       	ldi	r25, 0x00	; 0
     3b4:	fc 01       	movw	r30, r24
     3b6:	20 81       	ld	r18, Z
     3b8:	82 e2       	ldi	r24, 0x22	; 34
     3ba:	90 e0       	ldi	r25, 0x00	; 0

000003bc <.Loc.89>:
     3bc:	20 62       	ori	r18, 0x20	; 32
     3be:	fc 01       	movw	r30, r24
     3c0:	20 83       	st	Z, r18

000003c2 <.Loc.90>:
    PORTH &= ~(1 << x_RPWM);
     3c2:	82 e0       	ldi	r24, 0x02	; 2
     3c4:	91 e0       	ldi	r25, 0x01	; 1
     3c6:	fc 01       	movw	r30, r24
     3c8:	20 81       	ld	r18, Z

000003ca <.Loc.91>:
     3ca:	82 e0       	ldi	r24, 0x02	; 2
     3cc:	91 e0       	ldi	r25, 0x01	; 1

000003ce <.Loc.92>:
     3ce:	27 7f       	andi	r18, 0xF7	; 247
     3d0:	fc 01       	movw	r30, r24
     3d2:	20 83       	st	Z, r18

000003d4 <.Loc.93>:
    PORTH |= (1 << x_LPWM);
     3d4:	82 e0       	ldi	r24, 0x02	; 2
     3d6:	91 e0       	ldi	r25, 0x01	; 1
     3d8:	fc 01       	movw	r30, r24
     3da:	20 81       	ld	r18, Z
     3dc:	82 e0       	ldi	r24, 0x02	; 2
     3de:	91 e0       	ldi	r25, 0x01	; 1

000003e0 <.Loc.94>:
     3e0:	20 61       	ori	r18, 0x10	; 16
     3e2:	fc 01       	movw	r30, r24
     3e4:	20 83       	st	Z, r18

000003e6 <.Loc.95>:
}
     3e6:	00 00       	nop
     3e8:	df 91       	pop	r29
     3ea:	cf 91       	pop	r28
     3ec:	08 95       	ret

000003ee <ymotorpositief>:
void ymotorpositief()// y motor postief draaien via Hbrug
{
     3ee:	cf 93       	push	r28
     3f0:	df 93       	push	r29
     3f2:	cd b7       	in	r28, 0x3d	; 61
     3f4:	de b7       	in	r29, 0x3e	; 62

000003f6 <.Loc.97>:
        PORTA |= (1 << y_R_EN);
     3f6:	82 e2       	ldi	r24, 0x22	; 34
     3f8:	90 e0       	ldi	r25, 0x00	; 0
     3fa:	fc 01       	movw	r30, r24
     3fc:	20 81       	ld	r18, Z
     3fe:	82 e2       	ldi	r24, 0x22	; 34
     400:	90 e0       	ldi	r25, 0x00	; 0

00000402 <.Loc.98>:
     402:	24 60       	ori	r18, 0x04	; 4
     404:	fc 01       	movw	r30, r24
     406:	20 83       	st	Z, r18

00000408 <.Loc.99>:
        PORTA |= (1 << y_L_EN);
     408:	82 e2       	ldi	r24, 0x22	; 34
     40a:	90 e0       	ldi	r25, 0x00	; 0
     40c:	fc 01       	movw	r30, r24
     40e:	20 81       	ld	r18, Z
     410:	82 e2       	ldi	r24, 0x22	; 34
     412:	90 e0       	ldi	r25, 0x00	; 0

00000414 <.Loc.100>:
     414:	28 60       	ori	r18, 0x08	; 8
     416:	fc 01       	movw	r30, r24
     418:	20 83       	st	Z, r18

0000041a <.Loc.101>:
        PORTE |= (1 << y_RPWM);
     41a:	8e e2       	ldi	r24, 0x2E	; 46
     41c:	90 e0       	ldi	r25, 0x00	; 0
     41e:	fc 01       	movw	r30, r24
     420:	20 81       	ld	r18, Z
     422:	8e e2       	ldi	r24, 0x2E	; 46
     424:	90 e0       	ldi	r25, 0x00	; 0

00000426 <.Loc.102>:
     426:	28 60       	ori	r18, 0x08	; 8
     428:	fc 01       	movw	r30, r24
     42a:	20 83       	st	Z, r18

0000042c <.Loc.103>:
        PORTG &= ~(1 << y_LPWM);
     42c:	84 e3       	ldi	r24, 0x34	; 52
     42e:	90 e0       	ldi	r25, 0x00	; 0
     430:	fc 01       	movw	r30, r24
     432:	20 81       	ld	r18, Z

00000434 <.Loc.104>:
     434:	84 e3       	ldi	r24, 0x34	; 52
     436:	90 e0       	ldi	r25, 0x00	; 0

00000438 <.Loc.105>:
     438:	2f 7d       	andi	r18, 0xDF	; 223
     43a:	fc 01       	movw	r30, r24
     43c:	20 83       	st	Z, r18

0000043e <.Loc.106>:
}
     43e:	00 00       	nop
     440:	df 91       	pop	r29
     442:	cf 91       	pop	r28
     444:	08 95       	ret

00000446 <ymotoruit>:
void ymotoruit() //stopt y motor met draaien via H brug
{
     446:	cf 93       	push	r28
     448:	df 93       	push	r29
     44a:	cd b7       	in	r28, 0x3d	; 61
     44c:	de b7       	in	r29, 0x3e	; 62

0000044e <.Loc.108>:
    PORTA &= ~((1 << y_R_EN) | (1 << y_L_EN));
     44e:	82 e2       	ldi	r24, 0x22	; 34
     450:	90 e0       	ldi	r25, 0x00	; 0
     452:	fc 01       	movw	r30, r24
     454:	20 81       	ld	r18, Z

00000456 <.Loc.109>:
     456:	82 e2       	ldi	r24, 0x22	; 34
     458:	90 e0       	ldi	r25, 0x00	; 0

0000045a <.Loc.110>:
     45a:	23 7f       	andi	r18, 0xF3	; 243
     45c:	fc 01       	movw	r30, r24
     45e:	20 83       	st	Z, r18

00000460 <.Loc.111>:
    PORTE &= ~(1 << y_RPWM);
     460:	8e e2       	ldi	r24, 0x2E	; 46
     462:	90 e0       	ldi	r25, 0x00	; 0
     464:	fc 01       	movw	r30, r24
     466:	20 81       	ld	r18, Z

00000468 <.Loc.112>:
     468:	8e e2       	ldi	r24, 0x2E	; 46
     46a:	90 e0       	ldi	r25, 0x00	; 0

0000046c <.Loc.113>:
     46c:	27 7f       	andi	r18, 0xF7	; 247
     46e:	fc 01       	movw	r30, r24
     470:	20 83       	st	Z, r18

00000472 <.Loc.114>:
    PORTG &= ~(1 << y_LPWM);
     472:	84 e3       	ldi	r24, 0x34	; 52
     474:	90 e0       	ldi	r25, 0x00	; 0
     476:	fc 01       	movw	r30, r24
     478:	20 81       	ld	r18, Z

0000047a <.Loc.115>:
     47a:	84 e3       	ldi	r24, 0x34	; 52
     47c:	90 e0       	ldi	r25, 0x00	; 0

0000047e <.Loc.116>:
     47e:	2f 7d       	andi	r18, 0xDF	; 223
     480:	fc 01       	movw	r30, r24
     482:	20 83       	st	Z, r18

00000484 <.Loc.117>:
}
     484:	00 00       	nop
     486:	df 91       	pop	r29
     488:	cf 91       	pop	r28
     48a:	08 95       	ret

0000048c <ymotornegatief>:
void ymotornegatief() // y motor negatief draaien via Hbrug
{
     48c:	cf 93       	push	r28
     48e:	df 93       	push	r29
     490:	cd b7       	in	r28, 0x3d	; 61
     492:	de b7       	in	r29, 0x3e	; 62

00000494 <.Loc.119>:
    PORTA |= (1 << y_R_EN);
     494:	82 e2       	ldi	r24, 0x22	; 34
     496:	90 e0       	ldi	r25, 0x00	; 0
     498:	fc 01       	movw	r30, r24
     49a:	20 81       	ld	r18, Z
     49c:	82 e2       	ldi	r24, 0x22	; 34
     49e:	90 e0       	ldi	r25, 0x00	; 0

000004a0 <.Loc.120>:
     4a0:	24 60       	ori	r18, 0x04	; 4
     4a2:	fc 01       	movw	r30, r24
     4a4:	20 83       	st	Z, r18

000004a6 <.Loc.121>:
    PORTA |= (1 << y_L_EN);
     4a6:	82 e2       	ldi	r24, 0x22	; 34
     4a8:	90 e0       	ldi	r25, 0x00	; 0
     4aa:	fc 01       	movw	r30, r24
     4ac:	20 81       	ld	r18, Z
     4ae:	82 e2       	ldi	r24, 0x22	; 34
     4b0:	90 e0       	ldi	r25, 0x00	; 0

000004b2 <.Loc.122>:
     4b2:	28 60       	ori	r18, 0x08	; 8
     4b4:	fc 01       	movw	r30, r24
     4b6:	20 83       	st	Z, r18

000004b8 <.Loc.123>:
    PORTE &= ~(1 << y_RPWM);
     4b8:	8e e2       	ldi	r24, 0x2E	; 46
     4ba:	90 e0       	ldi	r25, 0x00	; 0
     4bc:	fc 01       	movw	r30, r24
     4be:	20 81       	ld	r18, Z

000004c0 <.Loc.124>:
     4c0:	8e e2       	ldi	r24, 0x2E	; 46
     4c2:	90 e0       	ldi	r25, 0x00	; 0

000004c4 <.Loc.125>:
     4c4:	27 7f       	andi	r18, 0xF7	; 247
     4c6:	fc 01       	movw	r30, r24
     4c8:	20 83       	st	Z, r18

000004ca <.Loc.126>:
    PORTG |= (1 << y_LPWM);
     4ca:	84 e3       	ldi	r24, 0x34	; 52
     4cc:	90 e0       	ldi	r25, 0x00	; 0
     4ce:	fc 01       	movw	r30, r24
     4d0:	20 81       	ld	r18, Z
     4d2:	84 e3       	ldi	r24, 0x34	; 52
     4d4:	90 e0       	ldi	r25, 0x00	; 0

000004d6 <.Loc.127>:
     4d6:	20 62       	ori	r18, 0x20	; 32
     4d8:	fc 01       	movw	r30, r24
     4da:	20 83       	st	Z, r18

000004dc <.Loc.128>:
}
     4dc:	00 00       	nop
     4de:	df 91       	pop	r29
     4e0:	cf 91       	pop	r28
     4e2:	08 95       	ret

000004e4 <zmotorpositief>:
void zmotorpositief()// z motor postief draaien via Hbrug
{
     4e4:	cf 93       	push	r28
     4e6:	df 93       	push	r29
     4e8:	cd b7       	in	r28, 0x3d	; 61
     4ea:	de b7       	in	r29, 0x3e	; 62

000004ec <.Loc.130>:
        PORTK |= (1 << z_R_EN);   // R_EN = 1
     4ec:	88 e0       	ldi	r24, 0x08	; 8
     4ee:	91 e0       	ldi	r25, 0x01	; 1
     4f0:	fc 01       	movw	r30, r24
     4f2:	20 81       	ld	r18, Z
     4f4:	88 e0       	ldi	r24, 0x08	; 8
     4f6:	91 e0       	ldi	r25, 0x01	; 1

000004f8 <.Loc.131>:
     4f8:	20 61       	ori	r18, 0x10	; 16
     4fa:	fc 01       	movw	r30, r24
     4fc:	20 83       	st	Z, r18

000004fe <.Loc.132>:
        PORTK |= (1 << z_L_EN);   // L_EN = 1
     4fe:	88 e0       	ldi	r24, 0x08	; 8
     500:	91 e0       	ldi	r25, 0x01	; 1
     502:	fc 01       	movw	r30, r24
     504:	20 81       	ld	r18, Z
     506:	88 e0       	ldi	r24, 0x08	; 8
     508:	91 e0       	ldi	r25, 0x01	; 1

0000050a <.Loc.133>:
     50a:	20 62       	ori	r18, 0x20	; 32
     50c:	fc 01       	movw	r30, r24
     50e:	20 83       	st	Z, r18

00000510 <.Loc.134>:
        PORTE |= (1 << z_RPWM);   // RPWM = 1
     510:	8e e2       	ldi	r24, 0x2E	; 46
     512:	90 e0       	ldi	r25, 0x00	; 0
     514:	fc 01       	movw	r30, r24
     516:	20 81       	ld	r18, Z
     518:	8e e2       	ldi	r24, 0x2E	; 46
     51a:	90 e0       	ldi	r25, 0x00	; 0

0000051c <.Loc.135>:
     51c:	20 61       	ori	r18, 0x10	; 16
     51e:	fc 01       	movw	r30, r24
     520:	20 83       	st	Z, r18

00000522 <.Loc.136>:
        PORTE &= ~(1 << z_LPWM);  // LPWM = 0
     522:	8e e2       	ldi	r24, 0x2E	; 46
     524:	90 e0       	ldi	r25, 0x00	; 0
     526:	fc 01       	movw	r30, r24
     528:	20 81       	ld	r18, Z

0000052a <.Loc.137>:
     52a:	8e e2       	ldi	r24, 0x2E	; 46
     52c:	90 e0       	ldi	r25, 0x00	; 0

0000052e <.Loc.138>:
     52e:	2f 7d       	andi	r18, 0xDF	; 223
     530:	fc 01       	movw	r30, r24
     532:	20 83       	st	Z, r18

00000534 <.Loc.139>:
}
     534:	00 00       	nop
     536:	df 91       	pop	r29
     538:	cf 91       	pop	r28
     53a:	08 95       	ret

0000053c <zmotoruit>:
void zmotoruit()//stopt z motor met draaien via H brug
{
     53c:	cf 93       	push	r28
     53e:	df 93       	push	r29
     540:	cd b7       	in	r28, 0x3d	; 61
     542:	de b7       	in	r29, 0x3e	; 62

00000544 <.Loc.141>:
    PORTK &= ~((1 << z_R_EN) | (1 << z_L_EN));
     544:	88 e0       	ldi	r24, 0x08	; 8
     546:	91 e0       	ldi	r25, 0x01	; 1
     548:	fc 01       	movw	r30, r24
     54a:	20 81       	ld	r18, Z

0000054c <.Loc.142>:
     54c:	88 e0       	ldi	r24, 0x08	; 8
     54e:	91 e0       	ldi	r25, 0x01	; 1

00000550 <.Loc.143>:
     550:	2f 7c       	andi	r18, 0xCF	; 207
     552:	fc 01       	movw	r30, r24
     554:	20 83       	st	Z, r18

00000556 <.Loc.144>:
    PORTE &= ~((1 << z_RPWM) | (1 << z_LPWM));
     556:	8e e2       	ldi	r24, 0x2E	; 46
     558:	90 e0       	ldi	r25, 0x00	; 0
     55a:	fc 01       	movw	r30, r24
     55c:	20 81       	ld	r18, Z

0000055e <.Loc.145>:
     55e:	8e e2       	ldi	r24, 0x2E	; 46
     560:	90 e0       	ldi	r25, 0x00	; 0

00000562 <.Loc.146>:
     562:	2f 7c       	andi	r18, 0xCF	; 207
     564:	fc 01       	movw	r30, r24
     566:	20 83       	st	Z, r18

00000568 <.Loc.147>:
}
     568:	00 00       	nop
     56a:	df 91       	pop	r29
     56c:	cf 91       	pop	r28
     56e:	08 95       	ret

00000570 <zmotornegatief>:
void zmotornegatief() // z motor negatief draaien via Hbrug

{
     570:	cf 93       	push	r28
     572:	df 93       	push	r29
     574:	cd b7       	in	r28, 0x3d	; 61
     576:	de b7       	in	r29, 0x3e	; 62

00000578 <.Loc.149>:
    PORTK |= (1 << z_R_EN);
     578:	88 e0       	ldi	r24, 0x08	; 8
     57a:	91 e0       	ldi	r25, 0x01	; 1
     57c:	fc 01       	movw	r30, r24
     57e:	20 81       	ld	r18, Z
     580:	88 e0       	ldi	r24, 0x08	; 8
     582:	91 e0       	ldi	r25, 0x01	; 1

00000584 <.Loc.150>:
     584:	20 61       	ori	r18, 0x10	; 16
     586:	fc 01       	movw	r30, r24
     588:	20 83       	st	Z, r18

0000058a <.Loc.151>:
    PORTK |= (1 << z_L_EN);
     58a:	88 e0       	ldi	r24, 0x08	; 8
     58c:	91 e0       	ldi	r25, 0x01	; 1
     58e:	fc 01       	movw	r30, r24
     590:	20 81       	ld	r18, Z
     592:	88 e0       	ldi	r24, 0x08	; 8
     594:	91 e0       	ldi	r25, 0x01	; 1

00000596 <.Loc.152>:
     596:	20 62       	ori	r18, 0x20	; 32
     598:	fc 01       	movw	r30, r24
     59a:	20 83       	st	Z, r18

0000059c <.Loc.153>:
    PORTE &= ~(1 << z_RPWM);
     59c:	8e e2       	ldi	r24, 0x2E	; 46
     59e:	90 e0       	ldi	r25, 0x00	; 0
     5a0:	fc 01       	movw	r30, r24
     5a2:	20 81       	ld	r18, Z

000005a4 <.Loc.154>:
     5a4:	8e e2       	ldi	r24, 0x2E	; 46
     5a6:	90 e0       	ldi	r25, 0x00	; 0

000005a8 <.Loc.155>:
     5a8:	2f 7e       	andi	r18, 0xEF	; 239
     5aa:	fc 01       	movw	r30, r24
     5ac:	20 83       	st	Z, r18

000005ae <.Loc.156>:
    PORTE |= (1 << z_LPWM);
     5ae:	8e e2       	ldi	r24, 0x2E	; 46
     5b0:	90 e0       	ldi	r25, 0x00	; 0
     5b2:	fc 01       	movw	r30, r24
     5b4:	20 81       	ld	r18, Z
     5b6:	8e e2       	ldi	r24, 0x2E	; 46
     5b8:	90 e0       	ldi	r25, 0x00	; 0

000005ba <.Loc.157>:
     5ba:	20 62       	ori	r18, 0x20	; 32
     5bc:	fc 01       	movw	r30, r24
     5be:	20 83       	st	Z, r18

000005c0 <.Loc.158>:
}
     5c0:	00 00       	nop
     5c2:	df 91       	pop	r29
     5c4:	cf 91       	pop	r28
     5c6:	08 95       	ret

000005c8 <magneetconfic>:
#ifndef magneet.h
#define magneet.h

void magneetconfic() // magneet ports output en uit zetten
{
     5c8:	cf 93       	push	r28
     5ca:	df 93       	push	r29
     5cc:	cd b7       	in	r28, 0x3d	; 61
     5ce:	de b7       	in	r29, 0x3e	; 62

000005d0 <.Loc.160>:
    DDRK &= ~(1 << PK6);
     5d0:	87 e0       	ldi	r24, 0x07	; 7
     5d2:	91 e0       	ldi	r25, 0x01	; 1
     5d4:	fc 01       	movw	r30, r24
     5d6:	20 81       	ld	r18, Z

000005d8 <.Loc.161>:
     5d8:	87 e0       	ldi	r24, 0x07	; 7
     5da:	91 e0       	ldi	r25, 0x01	; 1

000005dc <.Loc.162>:
     5dc:	2f 7b       	andi	r18, 0xBF	; 191
     5de:	fc 01       	movw	r30, r24
     5e0:	20 83       	st	Z, r18

000005e2 <.Loc.163>:
    PORTK &= ~(1 << PK6);
     5e2:	88 e0       	ldi	r24, 0x08	; 8
     5e4:	91 e0       	ldi	r25, 0x01	; 1
     5e6:	fc 01       	movw	r30, r24
     5e8:	20 81       	ld	r18, Z

000005ea <.Loc.164>:
     5ea:	88 e0       	ldi	r24, 0x08	; 8
     5ec:	91 e0       	ldi	r25, 0x01	; 1

000005ee <.Loc.165>:
     5ee:	2f 7b       	andi	r18, 0xBF	; 191
     5f0:	fc 01       	movw	r30, r24
     5f2:	20 83       	st	Z, r18

000005f4 <.Loc.166>:
}
     5f4:	00 00       	nop
     5f6:	df 91       	pop	r29
     5f8:	cf 91       	pop	r28
     5fa:	08 95       	ret

000005fc <magneetaan>:
void magneetaan() //magneet aanzetten
{
     5fc:	cf 93       	push	r28
     5fe:	df 93       	push	r29
     600:	cd b7       	in	r28, 0x3d	; 61
     602:	de b7       	in	r29, 0x3e	; 62

00000604 <.Loc.168>:
    PORTK |= (1 << PK6);
     604:	88 e0       	ldi	r24, 0x08	; 8
     606:	91 e0       	ldi	r25, 0x01	; 1
     608:	fc 01       	movw	r30, r24
     60a:	20 81       	ld	r18, Z
     60c:	88 e0       	ldi	r24, 0x08	; 8
     60e:	91 e0       	ldi	r25, 0x01	; 1

00000610 <.Loc.169>:
     610:	20 64       	ori	r18, 0x40	; 64
     612:	fc 01       	movw	r30, r24
     614:	20 83       	st	Z, r18

00000616 <.Loc.170>:
}
     616:	00 00       	nop
     618:	df 91       	pop	r29
     61a:	cf 91       	pop	r28
     61c:	08 95       	ret

0000061e <magneetuit>:
void magneetuit() //magneet uitzetten
{
     61e:	cf 93       	push	r28
     620:	df 93       	push	r29
     622:	cd b7       	in	r28, 0x3d	; 61
     624:	de b7       	in	r29, 0x3e	; 62

00000626 <.Loc.172>:
    PORTK &= ~(1 << PK6);
     626:	88 e0       	ldi	r24, 0x08	; 8
     628:	91 e0       	ldi	r25, 0x01	; 1
     62a:	fc 01       	movw	r30, r24
     62c:	20 81       	ld	r18, Z

0000062e <.Loc.173>:
     62e:	88 e0       	ldi	r24, 0x08	; 8
     630:	91 e0       	ldi	r25, 0x01	; 1

00000632 <.Loc.174>:
     632:	2f 7b       	andi	r18, 0xBF	; 191
     634:	fc 01       	movw	r30, r24
     636:	20 83       	st	Z, r18

00000638 <.Loc.175>:
}
     638:	00 00       	nop
     63a:	df 91       	pop	r29
     63c:	cf 91       	pop	r28
     63e:	08 95       	ret

00000640 <scanKeypad>:
   PORTK:
   PK0–PK3 = rijen (output)
   PK4–PK7 = kolommen (input + pull-up)
*/
char scanKeypad(void)
{
     640:	cf 93       	push	r28
     642:	df 93       	push	r29
     644:	00 d0       	rcall	.+0      	; 0x646 <L0^A>

00000646 <L0^A>:
     646:	0f 92       	push	r0
     648:	cd b7       	in	r28, 0x3d	; 61
     64a:	de b7       	in	r29, 0x3e	; 62

0000064c <.LBB2>:
    for (int rij = 0; rij < 4; rij++)
     64c:	1a 82       	std	Y+2, r1	; 0x02
     64e:	19 82       	std	Y+1, r1	; 0x01

00000650 <.Loc.178>:
     650:	53 c0       	rjmp	.+166    	; 0x6f8 <.L17>

00000652 <.L22>:
    {
        PORTK |= 0x0F;          // alle rijen hoog
     652:	88 e0       	ldi	r24, 0x08	; 8
     654:	91 e0       	ldi	r25, 0x01	; 1
     656:	fc 01       	movw	r30, r24
     658:	20 81       	ld	r18, Z
     65a:	88 e0       	ldi	r24, 0x08	; 8
     65c:	91 e0       	ldi	r25, 0x01	; 1

0000065e <.Loc.180>:
     65e:	2f 60       	ori	r18, 0x0F	; 15
     660:	fc 01       	movw	r30, r24
     662:	20 83       	st	Z, r18

00000664 <.Loc.181>:
        PORTK &= ~(1 << rij);  // één rij laag
     664:	88 e0       	ldi	r24, 0x08	; 8
     666:	91 e0       	ldi	r25, 0x01	; 1
     668:	fc 01       	movw	r30, r24
     66a:	80 81       	ld	r24, Z
     66c:	28 2f       	mov	r18, r24

0000066e <.Loc.182>:
     66e:	81 e0       	ldi	r24, 0x01	; 1
     670:	90 e0       	ldi	r25, 0x00	; 0
     672:	09 80       	ldd	r0, Y+1	; 0x01
     674:	02 c0       	rjmp	.+4      	; 0x67a <.L2^B1>

00000676 <.L1^B1>:
     676:	88 0f       	add	r24, r24
     678:	99 1f       	adc	r25, r25

0000067a <.L2^B1>:
     67a:	0a 94       	dec	r0
     67c:	e2 f7       	brpl	.-8      	; 0x676 <.L1^B1>

0000067e <.Loc.183>:
     67e:	80 95       	com	r24
     680:	28 23       	and	r18, r24

00000682 <.Loc.184>:
     682:	88 e0       	ldi	r24, 0x08	; 8
     684:	91 e0       	ldi	r25, 0x01	; 1

00000686 <.Loc.185>:
     686:	fc 01       	movw	r30, r24
     688:	20 83       	st	Z, r18

0000068a <.LBB3>:

        for (int kolom = 0; kolom < 4; kolom++)
     68a:	1c 82       	std	Y+4, r1	; 0x04
     68c:	1b 82       	std	Y+3, r1	; 0x03

0000068e <.Loc.187>:
     68e:	29 c0       	rjmp	.+82     	; 0x6e2 <.L18>

00000690 <.L21>:
        {
            if ((PINK & (1 << (kolom + 4))) == 0)
     690:	86 e0       	ldi	r24, 0x06	; 6
     692:	91 e0       	ldi	r25, 0x01	; 1
     694:	fc 01       	movw	r30, r24
     696:	80 81       	ld	r24, Z
     698:	88 2f       	mov	r24, r24
     69a:	90 e0       	ldi	r25, 0x00	; 0

0000069c <.Loc.189>:
     69c:	2b 81       	ldd	r18, Y+3	; 0x03
     69e:	3c 81       	ldd	r19, Y+4	; 0x04
     6a0:	2c 5f       	subi	r18, 0xFC	; 252
     6a2:	3f 4f       	sbci	r19, 0xFF	; 255

000006a4 <.Loc.190>:
     6a4:	02 2e       	mov	r0, r18
     6a6:	02 c0       	rjmp	.+4      	; 0x6ac <.L2^B2>

000006a8 <.L1^B2>:
     6a8:	95 95       	asr	r25
     6aa:	87 95       	ror	r24

000006ac <.L2^B2>:
     6ac:	0a 94       	dec	r0
     6ae:	e2 f7       	brpl	.-8      	; 0x6a8 <.L1^B2>
     6b0:	81 70       	andi	r24, 0x01	; 1
     6b2:	99 27       	eor	r25, r25

000006b4 <.Loc.191>:
     6b4:	00 97       	sbiw	r24, 0x00	; 0
     6b6:	81 f4       	brne	.+32     	; 0x6d8 <.L19>

000006b8 <.Loc.192>:
            {
                return keypad[rij][kolom];
     6b8:	89 81       	ldd	r24, Y+1	; 0x01
     6ba:	9a 81       	ldd	r25, Y+2	; 0x02
     6bc:	9c 01       	movw	r18, r24
     6be:	22 0f       	add	r18, r18
     6c0:	33 1f       	adc	r19, r19
     6c2:	22 0f       	add	r18, r18
     6c4:	33 1f       	adc	r19, r19
     6c6:	8b 81       	ldd	r24, Y+3	; 0x03
     6c8:	9c 81       	ldd	r25, Y+4	; 0x04
     6ca:	82 0f       	add	r24, r18
     6cc:	93 1f       	adc	r25, r19
     6ce:	80 50       	subi	r24, 0x00	; 0
     6d0:	9e 4f       	sbci	r25, 0xFE	; 254
     6d2:	fc 01       	movw	r30, r24
     6d4:	80 81       	ld	r24, Z
     6d6:	18 c0       	rjmp	.+48     	; 0x708 <.L20>

000006d8 <.L19>:
        for (int kolom = 0; kolom < 4; kolom++)
     6d8:	8b 81       	ldd	r24, Y+3	; 0x03
     6da:	9c 81       	ldd	r25, Y+4	; 0x04
     6dc:	01 96       	adiw	r24, 0x01	; 1
     6de:	9c 83       	std	Y+4, r25	; 0x04
     6e0:	8b 83       	std	Y+3, r24	; 0x03

000006e2 <.L18>:
     6e2:	8b 81       	ldd	r24, Y+3	; 0x03
     6e4:	9c 81       	ldd	r25, Y+4	; 0x04
     6e6:	83 30       	cpi	r24, 0x03	; 3
     6e8:	91 05       	cpc	r25, r1
     6ea:	91 f2       	breq	.-92     	; 0x690 <.L21>
     6ec:	8c f2       	brlt	.-94     	; 0x690 <.L21>

000006ee <.LBE3>:
    for (int rij = 0; rij < 4; rij++)
     6ee:	89 81       	ldd	r24, Y+1	; 0x01
     6f0:	9a 81       	ldd	r25, Y+2	; 0x02
     6f2:	01 96       	adiw	r24, 0x01	; 1
     6f4:	9a 83       	std	Y+2, r25	; 0x02
     6f6:	89 83       	std	Y+1, r24	; 0x01

000006f8 <.L17>:
     6f8:	89 81       	ldd	r24, Y+1	; 0x01
     6fa:	9a 81       	ldd	r25, Y+2	; 0x02
     6fc:	83 30       	cpi	r24, 0x03	; 3
     6fe:	91 05       	cpc	r25, r1
     700:	09 f0       	breq	.+2      	; 0x704 <L0^A>

00000702 <L0^A>:
     702:	0c f4       	brge	.+2      	; 0x706 <.LBE2>

00000704 <L0^A>:
     704:	a6 cf       	rjmp	.-180    	; 0x652 <.L22>

00000706 <.LBE2>:
            }
        }
    }
    return 0;   // geen toets ingedrukt
     706:	80 e0       	ldi	r24, 0x00	; 0

00000708 <.L20>:
}
     708:	0f 90       	pop	r0
     70a:	0f 90       	pop	r0
     70c:	0f 90       	pop	r0
     70e:	0f 90       	pop	r0
     710:	df 91       	pop	r29
     712:	cf 91       	pop	r28
     714:	08 95       	ret

00000716 <verwerkToets>:
/*
   TOETS VERWERKEN
*/

void verwerkToets(char t)
{
     716:	cf 93       	push	r28
     718:	df 93       	push	r29
     71a:	0f 92       	push	r0
     71c:	cd b7       	in	r28, 0x3d	; 61
     71e:	de b7       	in	r29, 0x3e	; 62
     720:	89 83       	std	Y+1, r24	; 0x01

00000722 <.Loc.200>:
    if (t >= '0' && t <= '9')
     722:	89 81       	ldd	r24, Y+1	; 0x01
     724:	8f 32       	cpi	r24, 0x2F	; 47
     726:	f9 f0       	breq	.+62     	; 0x766 <.L24>
     728:	f4 f0       	brlt	.+60     	; 0x766 <.L24>

0000072a <.Loc.201>:
     72a:	89 81       	ldd	r24, Y+1	; 0x01
     72c:	89 33       	cpi	r24, 0x39	; 57
     72e:	09 f0       	breq	.+2      	; 0x732 <.Loc.202>

00000730 <L0^A>:
     730:	d4 f4       	brge	.+52     	; 0x766 <.L24>

00000732 <.Loc.202>:
    {
        invoer = invoer * 10 + (t - '0');
     732:	20 91 76 02 	lds	r18, 0x0276	; 0x800276 <invoer>
     736:	30 91 77 02 	lds	r19, 0x0277	; 0x800277 <invoer+0x1>
     73a:	c9 01       	movw	r24, r18
     73c:	88 0f       	add	r24, r24
     73e:	99 1f       	adc	r25, r25
     740:	88 0f       	add	r24, r24
     742:	99 1f       	adc	r25, r25
     744:	82 0f       	add	r24, r18
     746:	93 1f       	adc	r25, r19
     748:	88 0f       	add	r24, r24
     74a:	99 1f       	adc	r25, r25
     74c:	9c 01       	movw	r18, r24

0000074e <.Loc.203>:
     74e:	89 81       	ldd	r24, Y+1	; 0x01
     750:	08 2e       	mov	r0, r24
     752:	00 0c       	add	r0, r0
     754:	99 0b       	sbc	r25, r25
     756:	c0 97       	sbiw	r24, 0x30	; 48

00000758 <.Loc.204>:
     758:	82 0f       	add	r24, r18
     75a:	93 1f       	adc	r25, r19

0000075c <.Loc.205>:
     75c:	90 93 77 02 	sts	0x0277, r25	; 0x800277 <invoer+0x1>
     760:	80 93 76 02 	sts	0x0276, r24	; 0x800276 <invoer>

00000764 <.Loc.206>:
            LOCATIE2 = invoer;

        invoer = 0;
        stap++;
    }
}
     764:	36 c0       	rjmp	.+108    	; 0x7d2 <.L28>

00000766 <.L24>:
    else if (t == 'C' && stap < 2)   // confirm
     766:	89 81       	ldd	r24, Y+1	; 0x01
     768:	83 34       	cpi	r24, 0x43	; 67
     76a:	99 f5       	brne	.+102    	; 0x7d2 <.L28>

0000076c <.Loc.208>:
     76c:	80 91 7c 02 	lds	r24, 0x027C	; 0x80027c <stap>
     770:	90 91 7d 02 	lds	r25, 0x027D	; 0x80027d <stap+0x1>

00000774 <.Loc.209>:
     774:	81 30       	cpi	r24, 0x01	; 1
     776:	91 05       	cpc	r25, r1
     778:	09 f0       	breq	.+2      	; 0x77c <.Loc.210>

0000077a <L0^A>:
     77a:	5c f5       	brge	.+86     	; 0x7d2 <.L28>

0000077c <.Loc.210>:
        if (stap == 0)
     77c:	80 91 7c 02 	lds	r24, 0x027C	; 0x80027c <stap>
     780:	90 91 7d 02 	lds	r25, 0x027D	; 0x80027d <stap+0x1>

00000784 <.Loc.211>:
     784:	00 97       	sbiw	r24, 0x00	; 0
     786:	49 f4       	brne	.+18     	; 0x79a <.L26>

00000788 <.Loc.212>:
            LOCATIE1 = invoer;
     788:	80 91 76 02 	lds	r24, 0x0276	; 0x800276 <invoer>
     78c:	90 91 77 02 	lds	r25, 0x0277	; 0x800277 <invoer+0x1>
     790:	90 93 79 02 	sts	0x0279, r25	; 0x800279 <LOCATIE1+0x1>
     794:	80 93 78 02 	sts	0x0278, r24	; 0x800278 <LOCATIE1>
     798:	0f c0       	rjmp	.+30     	; 0x7b8 <.L27>

0000079a <.L26>:
        else if (stap == 1)
     79a:	80 91 7c 02 	lds	r24, 0x027C	; 0x80027c <stap>
     79e:	90 91 7d 02 	lds	r25, 0x027D	; 0x80027d <stap+0x1>

000007a2 <.Loc.214>:
     7a2:	81 30       	cpi	r24, 0x01	; 1
     7a4:	91 05       	cpc	r25, r1
     7a6:	41 f4       	brne	.+16     	; 0x7b8 <.L27>

000007a8 <.Loc.215>:
            LOCATIE2 = invoer;
     7a8:	80 91 76 02 	lds	r24, 0x0276	; 0x800276 <invoer>
     7ac:	90 91 77 02 	lds	r25, 0x0277	; 0x800277 <invoer+0x1>
     7b0:	90 93 7b 02 	sts	0x027B, r25	; 0x80027b <LOCATIE2+0x1>
     7b4:	80 93 7a 02 	sts	0x027A, r24	; 0x80027a <LOCATIE2>

000007b8 <.L27>:
        invoer = 0;
     7b8:	10 92 77 02 	sts	0x0277, r1	; 0x800277 <invoer+0x1>
     7bc:	10 92 76 02 	sts	0x0276, r1	; 0x800276 <invoer>

000007c0 <.Loc.217>:
        stap++;
     7c0:	80 91 7c 02 	lds	r24, 0x027C	; 0x80027c <stap>
     7c4:	90 91 7d 02 	lds	r25, 0x027D	; 0x80027d <stap+0x1>
     7c8:	01 96       	adiw	r24, 0x01	; 1
     7ca:	90 93 7d 02 	sts	0x027D, r25	; 0x80027d <stap+0x1>
     7ce:	80 93 7c 02 	sts	0x027C, r24	; 0x80027c <stap>

000007d2 <.L28>:
}
     7d2:	00 00       	nop
     7d4:	0f 90       	pop	r0
     7d6:	df 91       	pop	r29
     7d8:	cf 91       	pop	r28
     7da:	08 95       	ret

000007dc <mainhumaninterface>:

//main
int mainhumaninterface(void) // display code
{
     7dc:	cf 93       	push	r28
     7de:	df 93       	push	r29
     7e0:	0f 92       	push	r0
     7e2:	0f 92       	push	r0
     7e4:	cd b7       	in	r28, 0x3d	; 61
     7e6:	de b7       	in	r29, 0x3e	; 62

000007e8 <.Loc.220>:
    int i = 1;
     7e8:	81 e0       	ldi	r24, 0x01	; 1
     7ea:	90 e0       	ldi	r25, 0x00	; 0
     7ec:	9a 83       	std	Y+2, r25	; 0x02
     7ee:	89 83       	std	Y+1, r24	; 0x01

000007f0 <.Loc.221>:


    DDRA = 0x7F;      // output
     7f0:	81 e2       	ldi	r24, 0x21	; 33
     7f2:	90 e0       	ldi	r25, 0x00	; 0

000007f4 <.Loc.222>:
     7f4:	2f e7       	ldi	r18, 0x7F	; 127
     7f6:	fc 01       	movw	r30, r24
     7f8:	20 83       	st	Z, r18

000007fa <.Loc.223>:

    // Keypad invoer
    DDRK = 0x0F;      // output rijen
     7fa:	87 e0       	ldi	r24, 0x07	; 7
     7fc:	91 e0       	ldi	r25, 0x01	; 1

000007fe <.Loc.224>:
     7fe:	2f e0       	ldi	r18, 0x0F	; 15
     800:	fc 01       	movw	r30, r24
     802:	20 83       	st	Z, r18

00000804 <.Loc.225>:
    PORTK = 0xF0;     // pull-up van kolommen
     804:	88 e0       	ldi	r24, 0x08	; 8
     806:	91 e0       	ldi	r25, 0x01	; 1

00000808 <.Loc.226>:
     808:	20 ef       	ldi	r18, 0xF0	; 240
     80a:	fc 01       	movw	r30, r24
     80c:	20 83       	st	Z, r18

0000080e <.Loc.227>:

    while (i)
     80e:	18 c0       	rjmp	.+48     	; 0x840 <.L30>

00000810 <.L33>:
    {
        toets = scanKeypad();
     810:	0e 94 20 03 	call	0x640	; 0x640 <scanKeypad>

00000814 <.Loc.229>:
     814:	80 93 7e 02 	sts	0x027E, r24	; 0x80027e <toets>

00000818 <.Loc.230>:
        if (toets != 0)
     818:	80 91 7e 02 	lds	r24, 0x027E	; 0x80027e <toets>

0000081c <.Loc.231>:
     81c:	88 23       	and	r24, r24
     81e:	21 f0       	breq	.+8      	; 0x828 <.L31>

00000820 <.Loc.232>:
        {
            verwerkToets(toets);
     820:	80 91 7e 02 	lds	r24, 0x027E	; 0x80027e <toets>
     824:	0e 94 8b 03 	call	0x716	; 0x716 <verwerkToets>

00000828 <.L31>:
        }

        if (PINK & (1 << PK6))
     828:	86 e0       	ldi	r24, 0x06	; 6
     82a:	91 e0       	ldi	r25, 0x01	; 1
     82c:	fc 01       	movw	r30, r24
     82e:	80 81       	ld	r24, Z

00000830 <.Loc.234>:
     830:	88 2f       	mov	r24, r24
     832:	90 e0       	ldi	r25, 0x00	; 0
     834:	80 74       	andi	r24, 0x40	; 64
     836:	99 27       	eor	r25, r25

00000838 <.Loc.235>:
     838:	00 97       	sbiw	r24, 0x00	; 0
     83a:	11 f0       	breq	.+4      	; 0x840 <.L30>

0000083c <.Loc.236>:
        {
            i = 0;
     83c:	1a 82       	std	Y+2, r1	; 0x02
     83e:	19 82       	std	Y+1, r1	; 0x01

00000840 <.L30>:
    while (i)
     840:	89 81       	ldd	r24, Y+1	; 0x01
     842:	9a 81       	ldd	r25, Y+2	; 0x02
     844:	00 97       	sbiw	r24, 0x00	; 0
     846:	21 f7       	brne	.-56     	; 0x810 <.L33>

00000848 <.Loc.238>:
        }
    }
}
     848:	00 00       	nop
     84a:	0f 90       	pop	r0
     84c:	0f 90       	pop	r0
     84e:	df 91       	pop	r29
     850:	cf 91       	pop	r28
     852:	08 95       	ret

00000854 <confic>:
#include "magneet.h"
#include "humaninterface.h"


void confic(void) // Laat alle confics runnen om PORTS en DDRS te veranderen
{
     854:	cf 93       	push	r28
     856:	df 93       	push	r29
     858:	cd b7       	in	r28, 0x3d	; 61
     85a:	de b7       	in	r29, 0x3e	; 62

0000085c <.Loc.240>:
    knopconfic();
     85c:	0e 94 3c 04 	call	0x878	; 0x878 <knopconfic>

00000860 <.Loc.241>:
    xmotorconfic();
     860:	0e 94 95 00 	call	0x12a	; 0x12a <xmotorconfic>

00000864 <.Loc.242>:
    ymotorconfic();
     864:	0e 94 e5 00 	call	0x1ca	; 0x1ca <ymotorconfic>

00000868 <.Loc.243>:
    zmotorconfic();
     868:	0e 94 35 01 	call	0x26a	; 0x26a <zmotorconfic>

0000086c <.Loc.244>:
    magneetconfic();
     86c:	0e 94 e4 02 	call	0x5c8	; 0x5c8 <magneetconfic>

00000870 <.Loc.245>:
}
     870:	00 00       	nop
     872:	df 91       	pop	r29
     874:	cf 91       	pop	r28
     876:	08 95       	ret

00000878 <knopconfic>:

void knopconfic(void)// maakt alle knoppen inputs
{
     878:	cf 93       	push	r28
     87a:	df 93       	push	r29
     87c:	cd b7       	in	r28, 0x3d	; 61
     87e:	de b7       	in	r29, 0x3e	; 62

00000880 <.Loc.247>:
DDRK &= ~(1 << PK1); // knoppen x as
     880:	87 e0       	ldi	r24, 0x07	; 7
     882:	91 e0       	ldi	r25, 0x01	; 1
     884:	fc 01       	movw	r30, r24
     886:	20 81       	ld	r18, Z

00000888 <.Loc.248>:
     888:	87 e0       	ldi	r24, 0x07	; 7
     88a:	91 e0       	ldi	r25, 0x01	; 1

0000088c <.Loc.249>:
     88c:	2d 7f       	andi	r18, 0xFD	; 253
     88e:	fc 01       	movw	r30, r24
     890:	20 83       	st	Z, r18

00000892 <.Loc.250>:
DDRK &= ~(1 << PK2);
     892:	87 e0       	ldi	r24, 0x07	; 7
     894:	91 e0       	ldi	r25, 0x01	; 1
     896:	fc 01       	movw	r30, r24
     898:	20 81       	ld	r18, Z

0000089a <.Loc.251>:
     89a:	87 e0       	ldi	r24, 0x07	; 7
     89c:	91 e0       	ldi	r25, 0x01	; 1

0000089e <.Loc.252>:
     89e:	2b 7f       	andi	r18, 0xFB	; 251
     8a0:	fc 01       	movw	r30, r24
     8a2:	20 83       	st	Z, r18

000008a4 <.Loc.253>:
DDRK &= ~(1 << PK3);
     8a4:	87 e0       	ldi	r24, 0x07	; 7
     8a6:	91 e0       	ldi	r25, 0x01	; 1
     8a8:	fc 01       	movw	r30, r24
     8aa:	20 81       	ld	r18, Z

000008ac <.Loc.254>:
     8ac:	87 e0       	ldi	r24, 0x07	; 7
     8ae:	91 e0       	ldi	r25, 0x01	; 1

000008b0 <.Loc.255>:
     8b0:	27 7f       	andi	r18, 0xF7	; 247
     8b2:	fc 01       	movw	r30, r24
     8b4:	20 83       	st	Z, r18

000008b6 <.Loc.256>:
DDRK &= ~(1 << PK4);
     8b6:	87 e0       	ldi	r24, 0x07	; 7
     8b8:	91 e0       	ldi	r25, 0x01	; 1
     8ba:	fc 01       	movw	r30, r24
     8bc:	20 81       	ld	r18, Z

000008be <.Loc.257>:
     8be:	87 e0       	ldi	r24, 0x07	; 7
     8c0:	91 e0       	ldi	r25, 0x01	; 1

000008c2 <.Loc.258>:
     8c2:	2f 7e       	andi	r18, 0xEF	; 239
     8c4:	fc 01       	movw	r30, r24
     8c6:	20 83       	st	Z, r18

000008c8 <.Loc.259>:
DDRK &= ~(1 << PK5);
     8c8:	87 e0       	ldi	r24, 0x07	; 7
     8ca:	91 e0       	ldi	r25, 0x01	; 1
     8cc:	fc 01       	movw	r30, r24
     8ce:	20 81       	ld	r18, Z

000008d0 <.Loc.260>:
     8d0:	87 e0       	ldi	r24, 0x07	; 7
     8d2:	91 e0       	ldi	r25, 0x01	; 1

000008d4 <.Loc.261>:
     8d4:	2f 7d       	andi	r18, 0xDF	; 223
     8d6:	fc 01       	movw	r30, r24
     8d8:	20 83       	st	Z, r18

000008da <.Loc.262>:

DDRE &= ~(1 << PL0); // knoppen y as
     8da:	8d e2       	ldi	r24, 0x2D	; 45
     8dc:	90 e0       	ldi	r25, 0x00	; 0
     8de:	fc 01       	movw	r30, r24
     8e0:	20 81       	ld	r18, Z

000008e2 <.Loc.263>:
     8e2:	8d e2       	ldi	r24, 0x2D	; 45
     8e4:	90 e0       	ldi	r25, 0x00	; 0

000008e6 <.Loc.264>:
     8e6:	2e 7f       	andi	r18, 0xFE	; 254
     8e8:	fc 01       	movw	r30, r24
     8ea:	20 83       	st	Z, r18

000008ec <.Loc.265>:
DDRE &= ~(1 << PB3);
     8ec:	8d e2       	ldi	r24, 0x2D	; 45
     8ee:	90 e0       	ldi	r25, 0x00	; 0
     8f0:	fc 01       	movw	r30, r24
     8f2:	20 81       	ld	r18, Z

000008f4 <.Loc.266>:
     8f4:	8d e2       	ldi	r24, 0x2D	; 45
     8f6:	90 e0       	ldi	r25, 0x00	; 0

000008f8 <.Loc.267>:
     8f8:	27 7f       	andi	r18, 0xF7	; 247
     8fa:	fc 01       	movw	r30, r24
     8fc:	20 83       	st	Z, r18

000008fe <.Loc.268>:
DDRE &= ~(1 << PB2);
     8fe:	8d e2       	ldi	r24, 0x2D	; 45
     900:	90 e0       	ldi	r25, 0x00	; 0
     902:	fc 01       	movw	r30, r24
     904:	20 81       	ld	r18, Z

00000906 <.Loc.269>:
     906:	8d e2       	ldi	r24, 0x2D	; 45
     908:	90 e0       	ldi	r25, 0x00	; 0

0000090a <.Loc.270>:
     90a:	2b 7f       	andi	r18, 0xFB	; 251
     90c:	fc 01       	movw	r30, r24
     90e:	20 83       	st	Z, r18

00000910 <.Loc.271>:
DDRE &= ~(1 << PB1);
     910:	8d e2       	ldi	r24, 0x2D	; 45
     912:	90 e0       	ldi	r25, 0x00	; 0
     914:	fc 01       	movw	r30, r24
     916:	20 81       	ld	r18, Z

00000918 <.Loc.272>:
     918:	8d e2       	ldi	r24, 0x2D	; 45
     91a:	90 e0       	ldi	r25, 0x00	; 0

0000091c <.Loc.273>:
     91c:	2d 7f       	andi	r18, 0xFD	; 253
     91e:	fc 01       	movw	r30, r24
     920:	20 83       	st	Z, r18

00000922 <.Loc.274>:
DDRE &= ~(1 << PB0);
     922:	8d e2       	ldi	r24, 0x2D	; 45
     924:	90 e0       	ldi	r25, 0x00	; 0
     926:	fc 01       	movw	r30, r24
     928:	20 81       	ld	r18, Z

0000092a <.Loc.275>:
     92a:	8d e2       	ldi	r24, 0x2D	; 45
     92c:	90 e0       	ldi	r25, 0x00	; 0

0000092e <.Loc.276>:
     92e:	2e 7f       	andi	r18, 0xFE	; 254
     930:	fc 01       	movw	r30, r24
     932:	20 83       	st	Z, r18

00000934 <.Loc.277>:

}
     934:	00 00       	nop
     936:	df 91       	pop	r29
     938:	cf 91       	pop	r28
     93a:	08 95       	ret

0000093c <bewegingx>:
int xbereikt = 0;
int ybereikt = 0;
int START = 1;

void bewegingx(int LOCATIE) // brengt de x as naar de goede coordinaat
{
     93c:	cf 93       	push	r28
     93e:	df 93       	push	r29
     940:	cd b7       	in	r28, 0x3d	; 61
     942:	de b7       	in	r29, 0x3e	; 62
     944:	e6 97       	sbiw	r28, 0x36	; 54
     946:	0f b6       	in	r0, 0x3f	; 63
     948:	f8 94       	cli
     94a:	de bf       	out	0x3e, r29	; 62
     94c:	0f be       	out	0x3f, r0	; 63
     94e:	cd bf       	out	0x3d, r28	; 61
     950:	9e ab       	std	Y+54, r25	; 0x36
     952:	8d ab       	std	Y+53, r24	; 0x35

00000954 <.Loc.279>:
    int arrayknopx[25] =
     954:	82 e3       	ldi	r24, 0x32	; 50
     956:	e2 e1       	ldi	r30, 0x12	; 18
     958:	f2 e0       	ldi	r31, 0x02	; 2
     95a:	de 01       	movw	r26, r28
     95c:	13 96       	adiw	r26, 0x03	; 3

0000095e <.L^B1>:
     95e:	01 90       	ld	r0, Z+
     960:	0d 92       	st	X+, r0
     962:	8a 95       	dec	r24
     964:	e1 f7       	brne	.-8      	; 0x95e <.L^B1>

00000966 <.Loc.280>:
        3,3,3,3,3,
        4,4,4,4,4,
        5,5,5,5,5
    };

    int knopx = arrayknopx[LOCATIE - 1];
     966:	8d a9       	ldd	r24, Y+53	; 0x35
     968:	9e a9       	ldd	r25, Y+54	; 0x36
     96a:	01 97       	sbiw	r24, 0x01	; 1

0000096c <.Loc.281>:
     96c:	88 0f       	add	r24, r24
     96e:	99 1f       	adc	r25, r25
     970:	9e 01       	movw	r18, r28
     972:	2f 5f       	subi	r18, 0xFF	; 255
     974:	3f 4f       	sbci	r19, 0xFF	; 255
     976:	82 0f       	add	r24, r18
     978:	93 1f       	adc	r25, r19
     97a:	02 96       	adiw	r24, 0x02	; 2
     97c:	fc 01       	movw	r30, r24
     97e:	80 81       	ld	r24, Z
     980:	91 81       	ldd	r25, Z+1	; 0x01
     982:	9a 83       	std	Y+2, r25	; 0x02
     984:	89 83       	std	Y+1, r24	; 0x01

00000986 <.Loc.282>:
    static int vorigestaatknopx = 0;

    // MOTOR POSITIEF
    if (knopx > vorigestaatknopx)
     986:	80 91 83 02 	lds	r24, 0x0283	; 0x800283 <vorigestaatknopx.1>
     98a:	90 91 84 02 	lds	r25, 0x0284	; 0x800284 <vorigestaatknopx.1+0x1>

0000098e <.Loc.283>:
     98e:	29 81       	ldd	r18, Y+1	; 0x01
     990:	3a 81       	ldd	r19, Y+2	; 0x02
     992:	28 17       	cp	r18, r24
     994:	39 07       	cpc	r19, r25
     996:	09 f0       	breq	.+2      	; 0x99a <L0^A>

00000998 <L0^A>:
     998:	0c f4       	brge	.+2      	; 0x99c <.Loc.284>

0000099a <L0^A>:
     99a:	87 c0       	rjmp	.+270    	; 0xaaa <.L37>

0000099c <.Loc.284>:

    {
        xbereikt = 0;
     99c:	10 92 80 02 	sts	0x0280, r1	; 0x800280 <xbereikt+0x1>
     9a0:	10 92 7f 02 	sts	0x027F, r1	; 0x80027f <xbereikt>

000009a4 <.Loc.285>:
        while(xbereikt == 0)
     9a4:	75 c0       	rjmp	.+234    	; 0xa90 <.L38>

000009a6 <.L44>:
        {
        xmotorpositief();
     9a6:	0e 94 85 01 	call	0x30a	; 0x30a <xmotorpositief>

000009aa <.Loc.287>:

        if (knopx == 1 && (PINK & (1 << PK1))){xmotoruit(); xbereikt = 1;}
     9aa:	89 81       	ldd	r24, Y+1	; 0x01
     9ac:	9a 81       	ldd	r25, Y+2	; 0x02
     9ae:	81 30       	cpi	r24, 0x01	; 1
     9b0:	91 05       	cpc	r25, r1
     9b2:	91 f4       	brne	.+36     	; 0x9d8 <.L39>

000009b4 <.Loc.288>:
     9b4:	86 e0       	ldi	r24, 0x06	; 6
     9b6:	91 e0       	ldi	r25, 0x01	; 1
     9b8:	fc 01       	movw	r30, r24
     9ba:	80 81       	ld	r24, Z

000009bc <.Loc.289>:
     9bc:	88 2f       	mov	r24, r24
     9be:	90 e0       	ldi	r25, 0x00	; 0
     9c0:	82 70       	andi	r24, 0x02	; 2
     9c2:	99 27       	eor	r25, r25

000009c4 <.Loc.290>:
     9c4:	00 97       	sbiw	r24, 0x00	; 0
     9c6:	41 f0       	breq	.+16     	; 0x9d8 <.L39>

000009c8 <.Loc.291>:
     9c8:	0e 94 b1 01 	call	0x362	; 0x362 <xmotoruit>

000009cc <.Loc.292>:
     9cc:	81 e0       	ldi	r24, 0x01	; 1
     9ce:	90 e0       	ldi	r25, 0x00	; 0
     9d0:	90 93 80 02 	sts	0x0280, r25	; 0x800280 <xbereikt+0x1>
     9d4:	80 93 7f 02 	sts	0x027F, r24	; 0x80027f <xbereikt>

000009d8 <.L39>:
        if (knopx == 2 && (PINK & (1 << PK2))){xmotoruit(); xbereikt = 1;}
     9d8:	89 81       	ldd	r24, Y+1	; 0x01
     9da:	9a 81       	ldd	r25, Y+2	; 0x02
     9dc:	82 30       	cpi	r24, 0x02	; 2
     9de:	91 05       	cpc	r25, r1
     9e0:	91 f4       	brne	.+36     	; 0xa06 <.L40>

000009e2 <.Loc.294>:
     9e2:	86 e0       	ldi	r24, 0x06	; 6
     9e4:	91 e0       	ldi	r25, 0x01	; 1
     9e6:	fc 01       	movw	r30, r24
     9e8:	80 81       	ld	r24, Z

000009ea <.Loc.295>:
     9ea:	88 2f       	mov	r24, r24
     9ec:	90 e0       	ldi	r25, 0x00	; 0
     9ee:	84 70       	andi	r24, 0x04	; 4
     9f0:	99 27       	eor	r25, r25

000009f2 <.Loc.296>:
     9f2:	00 97       	sbiw	r24, 0x00	; 0
     9f4:	41 f0       	breq	.+16     	; 0xa06 <.L40>

000009f6 <.Loc.297>:
     9f6:	0e 94 b1 01 	call	0x362	; 0x362 <xmotoruit>

000009fa <.Loc.298>:
     9fa:	81 e0       	ldi	r24, 0x01	; 1
     9fc:	90 e0       	ldi	r25, 0x00	; 0
     9fe:	90 93 80 02 	sts	0x0280, r25	; 0x800280 <xbereikt+0x1>
     a02:	80 93 7f 02 	sts	0x027F, r24	; 0x80027f <xbereikt>

00000a06 <.L40>:
        if (knopx == 3 && (PINK & (1 << PK3))){xmotoruit(); xbereikt = 1;}
     a06:	89 81       	ldd	r24, Y+1	; 0x01
     a08:	9a 81       	ldd	r25, Y+2	; 0x02
     a0a:	83 30       	cpi	r24, 0x03	; 3
     a0c:	91 05       	cpc	r25, r1
     a0e:	91 f4       	brne	.+36     	; 0xa34 <.L41>

00000a10 <.Loc.300>:
     a10:	86 e0       	ldi	r24, 0x06	; 6
     a12:	91 e0       	ldi	r25, 0x01	; 1
     a14:	fc 01       	movw	r30, r24
     a16:	80 81       	ld	r24, Z

00000a18 <.Loc.301>:
     a18:	88 2f       	mov	r24, r24
     a1a:	90 e0       	ldi	r25, 0x00	; 0
     a1c:	88 70       	andi	r24, 0x08	; 8
     a1e:	99 27       	eor	r25, r25

00000a20 <.Loc.302>:
     a20:	00 97       	sbiw	r24, 0x00	; 0
     a22:	41 f0       	breq	.+16     	; 0xa34 <.L41>

00000a24 <.Loc.303>:
     a24:	0e 94 b1 01 	call	0x362	; 0x362 <xmotoruit>

00000a28 <.Loc.304>:
     a28:	81 e0       	ldi	r24, 0x01	; 1
     a2a:	90 e0       	ldi	r25, 0x00	; 0
     a2c:	90 93 80 02 	sts	0x0280, r25	; 0x800280 <xbereikt+0x1>
     a30:	80 93 7f 02 	sts	0x027F, r24	; 0x80027f <xbereikt>

00000a34 <.L41>:
        if (knopx == 4 && (PINK & (1 << PK4))){xmotoruit(); xbereikt = 1;}
     a34:	89 81       	ldd	r24, Y+1	; 0x01
     a36:	9a 81       	ldd	r25, Y+2	; 0x02
     a38:	84 30       	cpi	r24, 0x04	; 4
     a3a:	91 05       	cpc	r25, r1
     a3c:	91 f4       	brne	.+36     	; 0xa62 <.L42>

00000a3e <.Loc.306>:
     a3e:	86 e0       	ldi	r24, 0x06	; 6
     a40:	91 e0       	ldi	r25, 0x01	; 1
     a42:	fc 01       	movw	r30, r24
     a44:	80 81       	ld	r24, Z

00000a46 <.Loc.307>:
     a46:	88 2f       	mov	r24, r24
     a48:	90 e0       	ldi	r25, 0x00	; 0
     a4a:	80 71       	andi	r24, 0x10	; 16
     a4c:	99 27       	eor	r25, r25

00000a4e <.Loc.308>:
     a4e:	00 97       	sbiw	r24, 0x00	; 0
     a50:	41 f0       	breq	.+16     	; 0xa62 <.L42>

00000a52 <.Loc.309>:
     a52:	0e 94 b1 01 	call	0x362	; 0x362 <xmotoruit>

00000a56 <.Loc.310>:
     a56:	81 e0       	ldi	r24, 0x01	; 1
     a58:	90 e0       	ldi	r25, 0x00	; 0
     a5a:	90 93 80 02 	sts	0x0280, r25	; 0x800280 <xbereikt+0x1>
     a5e:	80 93 7f 02 	sts	0x027F, r24	; 0x80027f <xbereikt>

00000a62 <.L42>:
        if (knopx == 5 && (PINK & (1 << PK5))){xmotoruit(); xbereikt = 1;}
     a62:	89 81       	ldd	r24, Y+1	; 0x01
     a64:	9a 81       	ldd	r25, Y+2	; 0x02
     a66:	85 30       	cpi	r24, 0x05	; 5
     a68:	91 05       	cpc	r25, r1
     a6a:	91 f4       	brne	.+36     	; 0xa90 <.L38>

00000a6c <.Loc.312>:
     a6c:	86 e0       	ldi	r24, 0x06	; 6
     a6e:	91 e0       	ldi	r25, 0x01	; 1
     a70:	fc 01       	movw	r30, r24
     a72:	80 81       	ld	r24, Z

00000a74 <.Loc.313>:
     a74:	88 2f       	mov	r24, r24
     a76:	90 e0       	ldi	r25, 0x00	; 0
     a78:	80 72       	andi	r24, 0x20	; 32
     a7a:	99 27       	eor	r25, r25

00000a7c <.Loc.314>:
     a7c:	00 97       	sbiw	r24, 0x00	; 0
     a7e:	41 f0       	breq	.+16     	; 0xa90 <.L38>

00000a80 <.Loc.315>:
     a80:	0e 94 b1 01 	call	0x362	; 0x362 <xmotoruit>

00000a84 <.Loc.316>:
     a84:	81 e0       	ldi	r24, 0x01	; 1
     a86:	90 e0       	ldi	r25, 0x00	; 0
     a88:	90 93 80 02 	sts	0x0280, r25	; 0x800280 <xbereikt+0x1>
     a8c:	80 93 7f 02 	sts	0x027F, r24	; 0x80027f <xbereikt>

00000a90 <.L38>:
        while(xbereikt == 0)
     a90:	80 91 7f 02 	lds	r24, 0x027F	; 0x80027f <xbereikt>
     a94:	90 91 80 02 	lds	r25, 0x0280	; 0x800280 <xbereikt+0x1>
     a98:	00 97       	sbiw	r24, 0x00	; 0
     a9a:	09 f4       	brne	.+2      	; 0xa9e <.Loc.318>

00000a9c <L0^A>:
     a9c:	84 cf       	rjmp	.-248    	; 0x9a6 <.L44>

00000a9e <.Loc.318>:
        }
        vorigestaatknopx = knopx;
     a9e:	89 81       	ldd	r24, Y+1	; 0x01
     aa0:	9a 81       	ldd	r25, Y+2	; 0x02
     aa2:	90 93 84 02 	sts	0x0284, r25	; 0x800284 <vorigestaatknopx.1+0x1>
     aa6:	80 93 83 02 	sts	0x0283, r24	; 0x800283 <vorigestaatknopx.1>

00000aaa <.L37>:
    }

    // MOTOR NEGATIEF
    if (knopx < vorigestaatknopx)
     aaa:	80 91 83 02 	lds	r24, 0x0283	; 0x800283 <vorigestaatknopx.1>
     aae:	90 91 84 02 	lds	r25, 0x0284	; 0x800284 <vorigestaatknopx.1+0x1>

00000ab2 <.Loc.320>:
     ab2:	29 81       	ldd	r18, Y+1	; 0x01
     ab4:	3a 81       	ldd	r19, Y+2	; 0x02
     ab6:	28 17       	cp	r18, r24
     ab8:	39 07       	cpc	r19, r25
     aba:	0c f0       	brlt	.+2      	; 0xabe <.Loc.321>

00000abc <L0^A>:
     abc:	87 c0       	rjmp	.+270    	; 0xbcc <.L53>

00000abe <.Loc.321>:
    {
        xbereikt = 0;
     abe:	10 92 80 02 	sts	0x0280, r1	; 0x800280 <xbereikt+0x1>
     ac2:	10 92 7f 02 	sts	0x027F, r1	; 0x80027f <xbereikt>

00000ac6 <.Loc.322>:
        while(xbereikt == 0)
     ac6:	75 c0       	rjmp	.+234    	; 0xbb2 <.L46>

00000ac8 <.L52>:
        {
        xmotornegatief();
     ac8:	0e 94 cb 01 	call	0x396	; 0x396 <xmotornegatief>

00000acc <.Loc.324>:
        if (knopx == 1 && (PINK & (1 << PK1))){xmotoruit(); xbereikt = 1;}
     acc:	89 81       	ldd	r24, Y+1	; 0x01
     ace:	9a 81       	ldd	r25, Y+2	; 0x02
     ad0:	81 30       	cpi	r24, 0x01	; 1
     ad2:	91 05       	cpc	r25, r1
     ad4:	91 f4       	brne	.+36     	; 0xafa <.L47>

00000ad6 <.Loc.325>:
     ad6:	86 e0       	ldi	r24, 0x06	; 6
     ad8:	91 e0       	ldi	r25, 0x01	; 1
     ada:	fc 01       	movw	r30, r24
     adc:	80 81       	ld	r24, Z

00000ade <.Loc.326>:
     ade:	88 2f       	mov	r24, r24
     ae0:	90 e0       	ldi	r25, 0x00	; 0
     ae2:	82 70       	andi	r24, 0x02	; 2
     ae4:	99 27       	eor	r25, r25

00000ae6 <.Loc.327>:
     ae6:	00 97       	sbiw	r24, 0x00	; 0
     ae8:	41 f0       	breq	.+16     	; 0xafa <.L47>

00000aea <.Loc.328>:
     aea:	0e 94 b1 01 	call	0x362	; 0x362 <xmotoruit>

00000aee <.Loc.329>:
     aee:	81 e0       	ldi	r24, 0x01	; 1
     af0:	90 e0       	ldi	r25, 0x00	; 0
     af2:	90 93 80 02 	sts	0x0280, r25	; 0x800280 <xbereikt+0x1>
     af6:	80 93 7f 02 	sts	0x027F, r24	; 0x80027f <xbereikt>

00000afa <.L47>:
        if (knopx == 2 && (PINK & (1 << PK2))){xmotoruit(); xbereikt = 1;}
     afa:	89 81       	ldd	r24, Y+1	; 0x01
     afc:	9a 81       	ldd	r25, Y+2	; 0x02
     afe:	82 30       	cpi	r24, 0x02	; 2
     b00:	91 05       	cpc	r25, r1
     b02:	91 f4       	brne	.+36     	; 0xb28 <.L48>

00000b04 <.Loc.331>:
     b04:	86 e0       	ldi	r24, 0x06	; 6
     b06:	91 e0       	ldi	r25, 0x01	; 1
     b08:	fc 01       	movw	r30, r24
     b0a:	80 81       	ld	r24, Z

00000b0c <.Loc.332>:
     b0c:	88 2f       	mov	r24, r24
     b0e:	90 e0       	ldi	r25, 0x00	; 0
     b10:	84 70       	andi	r24, 0x04	; 4
     b12:	99 27       	eor	r25, r25

00000b14 <.Loc.333>:
     b14:	00 97       	sbiw	r24, 0x00	; 0
     b16:	41 f0       	breq	.+16     	; 0xb28 <.L48>

00000b18 <.Loc.334>:
     b18:	0e 94 b1 01 	call	0x362	; 0x362 <xmotoruit>

00000b1c <.Loc.335>:
     b1c:	81 e0       	ldi	r24, 0x01	; 1
     b1e:	90 e0       	ldi	r25, 0x00	; 0
     b20:	90 93 80 02 	sts	0x0280, r25	; 0x800280 <xbereikt+0x1>
     b24:	80 93 7f 02 	sts	0x027F, r24	; 0x80027f <xbereikt>

00000b28 <.L48>:
        if (knopx == 3 && (PINK & (1 << PK3))){xmotoruit(); xbereikt = 1;}
     b28:	89 81       	ldd	r24, Y+1	; 0x01
     b2a:	9a 81       	ldd	r25, Y+2	; 0x02
     b2c:	83 30       	cpi	r24, 0x03	; 3
     b2e:	91 05       	cpc	r25, r1
     b30:	91 f4       	brne	.+36     	; 0xb56 <.L49>

00000b32 <.Loc.337>:
     b32:	86 e0       	ldi	r24, 0x06	; 6
     b34:	91 e0       	ldi	r25, 0x01	; 1
     b36:	fc 01       	movw	r30, r24
     b38:	80 81       	ld	r24, Z

00000b3a <.Loc.338>:
     b3a:	88 2f       	mov	r24, r24
     b3c:	90 e0       	ldi	r25, 0x00	; 0
     b3e:	88 70       	andi	r24, 0x08	; 8
     b40:	99 27       	eor	r25, r25

00000b42 <.Loc.339>:
     b42:	00 97       	sbiw	r24, 0x00	; 0
     b44:	41 f0       	breq	.+16     	; 0xb56 <.L49>

00000b46 <.Loc.340>:
     b46:	0e 94 b1 01 	call	0x362	; 0x362 <xmotoruit>

00000b4a <.Loc.341>:
     b4a:	81 e0       	ldi	r24, 0x01	; 1
     b4c:	90 e0       	ldi	r25, 0x00	; 0
     b4e:	90 93 80 02 	sts	0x0280, r25	; 0x800280 <xbereikt+0x1>
     b52:	80 93 7f 02 	sts	0x027F, r24	; 0x80027f <xbereikt>

00000b56 <.L49>:
        if (knopx == 4 && (PINK & (1 << PK4))){xmotoruit(); xbereikt = 1;}
     b56:	89 81       	ldd	r24, Y+1	; 0x01
     b58:	9a 81       	ldd	r25, Y+2	; 0x02
     b5a:	84 30       	cpi	r24, 0x04	; 4
     b5c:	91 05       	cpc	r25, r1
     b5e:	91 f4       	brne	.+36     	; 0xb84 <.L50>

00000b60 <.Loc.343>:
     b60:	86 e0       	ldi	r24, 0x06	; 6
     b62:	91 e0       	ldi	r25, 0x01	; 1
     b64:	fc 01       	movw	r30, r24
     b66:	80 81       	ld	r24, Z

00000b68 <.Loc.344>:
     b68:	88 2f       	mov	r24, r24
     b6a:	90 e0       	ldi	r25, 0x00	; 0
     b6c:	80 71       	andi	r24, 0x10	; 16
     b6e:	99 27       	eor	r25, r25

00000b70 <.Loc.345>:
     b70:	00 97       	sbiw	r24, 0x00	; 0
     b72:	41 f0       	breq	.+16     	; 0xb84 <.L50>

00000b74 <.Loc.346>:
     b74:	0e 94 b1 01 	call	0x362	; 0x362 <xmotoruit>

00000b78 <.Loc.347>:
     b78:	81 e0       	ldi	r24, 0x01	; 1
     b7a:	90 e0       	ldi	r25, 0x00	; 0
     b7c:	90 93 80 02 	sts	0x0280, r25	; 0x800280 <xbereikt+0x1>
     b80:	80 93 7f 02 	sts	0x027F, r24	; 0x80027f <xbereikt>

00000b84 <.L50>:
        if (knopx == 5 && (PINK & (1 << PK5))){xmotoruit(); xbereikt = 1;}
     b84:	89 81       	ldd	r24, Y+1	; 0x01
     b86:	9a 81       	ldd	r25, Y+2	; 0x02
     b88:	85 30       	cpi	r24, 0x05	; 5
     b8a:	91 05       	cpc	r25, r1
     b8c:	91 f4       	brne	.+36     	; 0xbb2 <.L46>

00000b8e <.Loc.349>:
     b8e:	86 e0       	ldi	r24, 0x06	; 6
     b90:	91 e0       	ldi	r25, 0x01	; 1
     b92:	fc 01       	movw	r30, r24
     b94:	80 81       	ld	r24, Z

00000b96 <.Loc.350>:
     b96:	88 2f       	mov	r24, r24
     b98:	90 e0       	ldi	r25, 0x00	; 0
     b9a:	80 72       	andi	r24, 0x20	; 32
     b9c:	99 27       	eor	r25, r25

00000b9e <.Loc.351>:
     b9e:	00 97       	sbiw	r24, 0x00	; 0
     ba0:	41 f0       	breq	.+16     	; 0xbb2 <.L46>

00000ba2 <.Loc.352>:
     ba2:	0e 94 b1 01 	call	0x362	; 0x362 <xmotoruit>

00000ba6 <.Loc.353>:
     ba6:	81 e0       	ldi	r24, 0x01	; 1
     ba8:	90 e0       	ldi	r25, 0x00	; 0
     baa:	90 93 80 02 	sts	0x0280, r25	; 0x800280 <xbereikt+0x1>
     bae:	80 93 7f 02 	sts	0x027F, r24	; 0x80027f <xbereikt>

00000bb2 <.L46>:
        while(xbereikt == 0)
     bb2:	80 91 7f 02 	lds	r24, 0x027F	; 0x80027f <xbereikt>
     bb6:	90 91 80 02 	lds	r25, 0x0280	; 0x800280 <xbereikt+0x1>
     bba:	00 97       	sbiw	r24, 0x00	; 0
     bbc:	09 f4       	brne	.+2      	; 0xbc0 <.Loc.355>

00000bbe <L0^A>:
     bbe:	84 cf       	rjmp	.-248    	; 0xac8 <.L52>

00000bc0 <.Loc.355>:
        }
        vorigestaatknopx = knopx;
     bc0:	89 81       	ldd	r24, Y+1	; 0x01
     bc2:	9a 81       	ldd	r25, Y+2	; 0x02
     bc4:	90 93 84 02 	sts	0x0284, r25	; 0x800284 <vorigestaatknopx.1+0x1>
     bc8:	80 93 83 02 	sts	0x0283, r24	; 0x800283 <vorigestaatknopx.1>

00000bcc <.L53>:
    }
}
     bcc:	00 00       	nop
     bce:	e6 96       	adiw	r28, 0x36	; 54
     bd0:	0f b6       	in	r0, 0x3f	; 63
     bd2:	f8 94       	cli
     bd4:	de bf       	out	0x3e, r29	; 62
     bd6:	0f be       	out	0x3f, r0	; 63
     bd8:	cd bf       	out	0x3d, r28	; 61
     bda:	df 91       	pop	r29
     bdc:	cf 91       	pop	r28
     bde:	08 95       	ret

00000be0 <bewegingy>:



void bewegingy(int LOCATIE) // brengt de y as naar de goede coordinaat
{
     be0:	cf 93       	push	r28
     be2:	df 93       	push	r29
     be4:	cd b7       	in	r28, 0x3d	; 61
     be6:	de b7       	in	r29, 0x3e	; 62
     be8:	e6 97       	sbiw	r28, 0x36	; 54
     bea:	0f b6       	in	r0, 0x3f	; 63
     bec:	f8 94       	cli
     bee:	de bf       	out	0x3e, r29	; 62
     bf0:	0f be       	out	0x3f, r0	; 63
     bf2:	cd bf       	out	0x3d, r28	; 61
     bf4:	9e ab       	std	Y+54, r25	; 0x36
     bf6:	8d ab       	std	Y+53, r24	; 0x35

00000bf8 <.Loc.358>:
    int arrayknopy[25] = {
     bf8:	82 e3       	ldi	r24, 0x32	; 50
     bfa:	e4 e4       	ldi	r30, 0x44	; 68
     bfc:	f2 e0       	ldi	r31, 0x02	; 2
     bfe:	de 01       	movw	r26, r28
     c00:	13 96       	adiw	r26, 0x03	; 3

00000c02 <.L^B2>:
     c02:	01 90       	ld	r0, Z+
     c04:	0d 92       	st	X+, r0
     c06:	8a 95       	dec	r24
     c08:	e1 f7       	brne	.-8      	; 0xc02 <.L^B2>

00000c0a <.Loc.359>:
        1,2,3,4,5,
        1,2,3,4,5,
        1,2,3,4,5
    };

    int knopy = arrayknopy[LOCATIE - 1];
     c0a:	8d a9       	ldd	r24, Y+53	; 0x35
     c0c:	9e a9       	ldd	r25, Y+54	; 0x36
     c0e:	01 97       	sbiw	r24, 0x01	; 1

00000c10 <.Loc.360>:
     c10:	88 0f       	add	r24, r24
     c12:	99 1f       	adc	r25, r25
     c14:	9e 01       	movw	r18, r28
     c16:	2f 5f       	subi	r18, 0xFF	; 255
     c18:	3f 4f       	sbci	r19, 0xFF	; 255
     c1a:	82 0f       	add	r24, r18
     c1c:	93 1f       	adc	r25, r19
     c1e:	02 96       	adiw	r24, 0x02	; 2
     c20:	fc 01       	movw	r30, r24
     c22:	80 81       	ld	r24, Z
     c24:	91 81       	ldd	r25, Z+1	; 0x01
     c26:	9a 83       	std	Y+2, r25	; 0x02
     c28:	89 83       	std	Y+1, r24	; 0x01

00000c2a <.Loc.361>:
    static int vorigestaatknopy = 0;

    // MOTOR POSITIEF
    if (knopy > vorigestaatknopy)
     c2a:	80 91 85 02 	lds	r24, 0x0285	; 0x800285 <vorigestaatknopy.0>
     c2e:	90 91 86 02 	lds	r25, 0x0286	; 0x800286 <vorigestaatknopy.0+0x1>

00000c32 <.Loc.362>:
     c32:	29 81       	ldd	r18, Y+1	; 0x01
     c34:	3a 81       	ldd	r19, Y+2	; 0x02
     c36:	28 17       	cp	r18, r24
     c38:	39 07       	cpc	r19, r25
     c3a:	09 f0       	breq	.+2      	; 0xc3e <L0^A>

00000c3c <L0^A>:
     c3c:	0c f4       	brge	.+2      	; 0xc40 <.Loc.363>

00000c3e <L0^A>:
     c3e:	87 c0       	rjmp	.+270    	; 0xd4e <.L55>

00000c40 <.Loc.363>:
    {
        ybereikt = 0;
     c40:	10 92 82 02 	sts	0x0282, r1	; 0x800282 <ybereikt+0x1>
     c44:	10 92 81 02 	sts	0x0281, r1	; 0x800281 <ybereikt>

00000c48 <.Loc.364>:
        while(ybereikt == 0)
     c48:	75 c0       	rjmp	.+234    	; 0xd34 <.L56>

00000c4a <.L62>:
        {
        ymotorpositief();
     c4a:	0e 94 f7 01 	call	0x3ee	; 0x3ee <ymotorpositief>

00000c4e <.Loc.366>:

        if (knopy == 1 && (PINL & (1 << PL0))){ymotoruit(); ybereikt = 1;}
     c4e:	89 81       	ldd	r24, Y+1	; 0x01
     c50:	9a 81       	ldd	r25, Y+2	; 0x02
     c52:	81 30       	cpi	r24, 0x01	; 1
     c54:	91 05       	cpc	r25, r1
     c56:	91 f4       	brne	.+36     	; 0xc7c <.L57>

00000c58 <.Loc.367>:
     c58:	89 e0       	ldi	r24, 0x09	; 9
     c5a:	91 e0       	ldi	r25, 0x01	; 1
     c5c:	fc 01       	movw	r30, r24
     c5e:	80 81       	ld	r24, Z

00000c60 <.Loc.368>:
     c60:	88 2f       	mov	r24, r24
     c62:	90 e0       	ldi	r25, 0x00	; 0
     c64:	81 70       	andi	r24, 0x01	; 1
     c66:	99 27       	eor	r25, r25

00000c68 <.Loc.369>:
     c68:	00 97       	sbiw	r24, 0x00	; 0
     c6a:	41 f0       	breq	.+16     	; 0xc7c <.L57>

00000c6c <.Loc.370>:
     c6c:	0e 94 23 02 	call	0x446	; 0x446 <ymotoruit>

00000c70 <.Loc.371>:
     c70:	81 e0       	ldi	r24, 0x01	; 1
     c72:	90 e0       	ldi	r25, 0x00	; 0
     c74:	90 93 82 02 	sts	0x0282, r25	; 0x800282 <ybereikt+0x1>
     c78:	80 93 81 02 	sts	0x0281, r24	; 0x800281 <ybereikt>

00000c7c <.L57>:
        if (knopy == 2 && (PINB & (1 << PB3))){ymotoruit(); ybereikt = 1;}
     c7c:	89 81       	ldd	r24, Y+1	; 0x01
     c7e:	9a 81       	ldd	r25, Y+2	; 0x02
     c80:	82 30       	cpi	r24, 0x02	; 2
     c82:	91 05       	cpc	r25, r1
     c84:	91 f4       	brne	.+36     	; 0xcaa <.L58>

00000c86 <.Loc.373>:
     c86:	83 e2       	ldi	r24, 0x23	; 35
     c88:	90 e0       	ldi	r25, 0x00	; 0
     c8a:	fc 01       	movw	r30, r24
     c8c:	80 81       	ld	r24, Z

00000c8e <.Loc.374>:
     c8e:	88 2f       	mov	r24, r24
     c90:	90 e0       	ldi	r25, 0x00	; 0
     c92:	88 70       	andi	r24, 0x08	; 8
     c94:	99 27       	eor	r25, r25

00000c96 <.Loc.375>:
     c96:	00 97       	sbiw	r24, 0x00	; 0
     c98:	41 f0       	breq	.+16     	; 0xcaa <.L58>

00000c9a <.Loc.376>:
     c9a:	0e 94 23 02 	call	0x446	; 0x446 <ymotoruit>

00000c9e <.Loc.377>:
     c9e:	81 e0       	ldi	r24, 0x01	; 1
     ca0:	90 e0       	ldi	r25, 0x00	; 0
     ca2:	90 93 82 02 	sts	0x0282, r25	; 0x800282 <ybereikt+0x1>
     ca6:	80 93 81 02 	sts	0x0281, r24	; 0x800281 <ybereikt>

00000caa <.L58>:
        if (knopy == 3 && (PINB & (1 << PB2))){ymotoruit(); ybereikt = 1;}
     caa:	89 81       	ldd	r24, Y+1	; 0x01
     cac:	9a 81       	ldd	r25, Y+2	; 0x02
     cae:	83 30       	cpi	r24, 0x03	; 3
     cb0:	91 05       	cpc	r25, r1
     cb2:	91 f4       	brne	.+36     	; 0xcd8 <.L59>

00000cb4 <.Loc.379>:
     cb4:	83 e2       	ldi	r24, 0x23	; 35
     cb6:	90 e0       	ldi	r25, 0x00	; 0
     cb8:	fc 01       	movw	r30, r24
     cba:	80 81       	ld	r24, Z

00000cbc <.Loc.380>:
     cbc:	88 2f       	mov	r24, r24
     cbe:	90 e0       	ldi	r25, 0x00	; 0
     cc0:	84 70       	andi	r24, 0x04	; 4
     cc2:	99 27       	eor	r25, r25

00000cc4 <.Loc.381>:
     cc4:	00 97       	sbiw	r24, 0x00	; 0
     cc6:	41 f0       	breq	.+16     	; 0xcd8 <.L59>

00000cc8 <.Loc.382>:
     cc8:	0e 94 23 02 	call	0x446	; 0x446 <ymotoruit>

00000ccc <.Loc.383>:
     ccc:	81 e0       	ldi	r24, 0x01	; 1
     cce:	90 e0       	ldi	r25, 0x00	; 0
     cd0:	90 93 82 02 	sts	0x0282, r25	; 0x800282 <ybereikt+0x1>
     cd4:	80 93 81 02 	sts	0x0281, r24	; 0x800281 <ybereikt>

00000cd8 <.L59>:
        if (knopy == 4 && (PINB & (1 << PB1))){ymotoruit(); ybereikt = 1;}
     cd8:	89 81       	ldd	r24, Y+1	; 0x01
     cda:	9a 81       	ldd	r25, Y+2	; 0x02
     cdc:	84 30       	cpi	r24, 0x04	; 4
     cde:	91 05       	cpc	r25, r1
     ce0:	91 f4       	brne	.+36     	; 0xd06 <.L60>

00000ce2 <.Loc.385>:
     ce2:	83 e2       	ldi	r24, 0x23	; 35
     ce4:	90 e0       	ldi	r25, 0x00	; 0
     ce6:	fc 01       	movw	r30, r24
     ce8:	80 81       	ld	r24, Z

00000cea <.Loc.386>:
     cea:	88 2f       	mov	r24, r24
     cec:	90 e0       	ldi	r25, 0x00	; 0
     cee:	82 70       	andi	r24, 0x02	; 2
     cf0:	99 27       	eor	r25, r25

00000cf2 <.Loc.387>:
     cf2:	00 97       	sbiw	r24, 0x00	; 0
     cf4:	41 f0       	breq	.+16     	; 0xd06 <.L60>

00000cf6 <.Loc.388>:
     cf6:	0e 94 23 02 	call	0x446	; 0x446 <ymotoruit>

00000cfa <.Loc.389>:
     cfa:	81 e0       	ldi	r24, 0x01	; 1
     cfc:	90 e0       	ldi	r25, 0x00	; 0
     cfe:	90 93 82 02 	sts	0x0282, r25	; 0x800282 <ybereikt+0x1>
     d02:	80 93 81 02 	sts	0x0281, r24	; 0x800281 <ybereikt>

00000d06 <.L60>:
        if (knopy == 5 && (PINB & (1 << PB0))){ymotoruit(); ybereikt = 1;}
     d06:	89 81       	ldd	r24, Y+1	; 0x01
     d08:	9a 81       	ldd	r25, Y+2	; 0x02
     d0a:	85 30       	cpi	r24, 0x05	; 5
     d0c:	91 05       	cpc	r25, r1
     d0e:	91 f4       	brne	.+36     	; 0xd34 <.L56>

00000d10 <.Loc.391>:
     d10:	83 e2       	ldi	r24, 0x23	; 35
     d12:	90 e0       	ldi	r25, 0x00	; 0
     d14:	fc 01       	movw	r30, r24
     d16:	80 81       	ld	r24, Z

00000d18 <.Loc.392>:
     d18:	88 2f       	mov	r24, r24
     d1a:	90 e0       	ldi	r25, 0x00	; 0
     d1c:	81 70       	andi	r24, 0x01	; 1
     d1e:	99 27       	eor	r25, r25

00000d20 <.Loc.393>:
     d20:	00 97       	sbiw	r24, 0x00	; 0
     d22:	41 f0       	breq	.+16     	; 0xd34 <.L56>

00000d24 <.Loc.394>:
     d24:	0e 94 23 02 	call	0x446	; 0x446 <ymotoruit>

00000d28 <.Loc.395>:
     d28:	81 e0       	ldi	r24, 0x01	; 1
     d2a:	90 e0       	ldi	r25, 0x00	; 0
     d2c:	90 93 82 02 	sts	0x0282, r25	; 0x800282 <ybereikt+0x1>
     d30:	80 93 81 02 	sts	0x0281, r24	; 0x800281 <ybereikt>

00000d34 <.L56>:
        while(ybereikt == 0)
     d34:	80 91 81 02 	lds	r24, 0x0281	; 0x800281 <ybereikt>
     d38:	90 91 82 02 	lds	r25, 0x0282	; 0x800282 <ybereikt+0x1>
     d3c:	00 97       	sbiw	r24, 0x00	; 0
     d3e:	09 f4       	brne	.+2      	; 0xd42 <.Loc.397>

00000d40 <L0^A>:
     d40:	84 cf       	rjmp	.-248    	; 0xc4a <.L62>

00000d42 <.Loc.397>:
        }

        vorigestaatknopy = knopy;
     d42:	89 81       	ldd	r24, Y+1	; 0x01
     d44:	9a 81       	ldd	r25, Y+2	; 0x02
     d46:	90 93 86 02 	sts	0x0286, r25	; 0x800286 <vorigestaatknopy.0+0x1>
     d4a:	80 93 85 02 	sts	0x0285, r24	; 0x800285 <vorigestaatknopy.0>

00000d4e <.L55>:
    }

    // MOTOR NEGATIEF
    if (knopy < vorigestaatknopy)
     d4e:	80 91 85 02 	lds	r24, 0x0285	; 0x800285 <vorigestaatknopy.0>
     d52:	90 91 86 02 	lds	r25, 0x0286	; 0x800286 <vorigestaatknopy.0+0x1>

00000d56 <.Loc.399>:
     d56:	29 81       	ldd	r18, Y+1	; 0x01
     d58:	3a 81       	ldd	r19, Y+2	; 0x02
     d5a:	28 17       	cp	r18, r24
     d5c:	39 07       	cpc	r19, r25
     d5e:	0c f0       	brlt	.+2      	; 0xd62 <.Loc.400>

00000d60 <L0^A>:
     d60:	87 c0       	rjmp	.+270    	; 0xe70 <.L71>

00000d62 <.Loc.400>:
    {
        ybereikt = 0;
     d62:	10 92 82 02 	sts	0x0282, r1	; 0x800282 <ybereikt+0x1>
     d66:	10 92 81 02 	sts	0x0281, r1	; 0x800281 <ybereikt>

00000d6a <.Loc.401>:
        while(ybereikt == 0)
     d6a:	75 c0       	rjmp	.+234    	; 0xe56 <.L64>

00000d6c <.L70>:
        {
        ymotornegatief();
     d6c:	0e 94 46 02 	call	0x48c	; 0x48c <ymotornegatief>

00000d70 <.Loc.403>:
        if (knopy == 1 && (PINL & (1 << PL0))){ymotoruit(); ybereikt = 1;}
     d70:	89 81       	ldd	r24, Y+1	; 0x01
     d72:	9a 81       	ldd	r25, Y+2	; 0x02
     d74:	81 30       	cpi	r24, 0x01	; 1
     d76:	91 05       	cpc	r25, r1
     d78:	91 f4       	brne	.+36     	; 0xd9e <.L65>

00000d7a <.Loc.404>:
     d7a:	89 e0       	ldi	r24, 0x09	; 9
     d7c:	91 e0       	ldi	r25, 0x01	; 1
     d7e:	fc 01       	movw	r30, r24
     d80:	80 81       	ld	r24, Z

00000d82 <.Loc.405>:
     d82:	88 2f       	mov	r24, r24
     d84:	90 e0       	ldi	r25, 0x00	; 0
     d86:	81 70       	andi	r24, 0x01	; 1
     d88:	99 27       	eor	r25, r25

00000d8a <.Loc.406>:
     d8a:	00 97       	sbiw	r24, 0x00	; 0
     d8c:	41 f0       	breq	.+16     	; 0xd9e <.L65>

00000d8e <.Loc.407>:
     d8e:	0e 94 23 02 	call	0x446	; 0x446 <ymotoruit>

00000d92 <.Loc.408>:
     d92:	81 e0       	ldi	r24, 0x01	; 1
     d94:	90 e0       	ldi	r25, 0x00	; 0
     d96:	90 93 82 02 	sts	0x0282, r25	; 0x800282 <ybereikt+0x1>
     d9a:	80 93 81 02 	sts	0x0281, r24	; 0x800281 <ybereikt>

00000d9e <.L65>:
        if (knopy == 2 && (PINB & (1 << PB3))){ymotoruit(); ybereikt = 1;}
     d9e:	89 81       	ldd	r24, Y+1	; 0x01
     da0:	9a 81       	ldd	r25, Y+2	; 0x02
     da2:	82 30       	cpi	r24, 0x02	; 2
     da4:	91 05       	cpc	r25, r1
     da6:	91 f4       	brne	.+36     	; 0xdcc <.L66>

00000da8 <.Loc.410>:
     da8:	83 e2       	ldi	r24, 0x23	; 35
     daa:	90 e0       	ldi	r25, 0x00	; 0
     dac:	fc 01       	movw	r30, r24
     dae:	80 81       	ld	r24, Z

00000db0 <.Loc.411>:
     db0:	88 2f       	mov	r24, r24
     db2:	90 e0       	ldi	r25, 0x00	; 0
     db4:	88 70       	andi	r24, 0x08	; 8
     db6:	99 27       	eor	r25, r25

00000db8 <.Loc.412>:
     db8:	00 97       	sbiw	r24, 0x00	; 0
     dba:	41 f0       	breq	.+16     	; 0xdcc <.L66>

00000dbc <.Loc.413>:
     dbc:	0e 94 23 02 	call	0x446	; 0x446 <ymotoruit>

00000dc0 <.Loc.414>:
     dc0:	81 e0       	ldi	r24, 0x01	; 1
     dc2:	90 e0       	ldi	r25, 0x00	; 0
     dc4:	90 93 82 02 	sts	0x0282, r25	; 0x800282 <ybereikt+0x1>
     dc8:	80 93 81 02 	sts	0x0281, r24	; 0x800281 <ybereikt>

00000dcc <.L66>:
        if (knopy == 3 && (PINB & (1 << PB2))){ymotoruit(); ybereikt = 1;}
     dcc:	89 81       	ldd	r24, Y+1	; 0x01
     dce:	9a 81       	ldd	r25, Y+2	; 0x02
     dd0:	83 30       	cpi	r24, 0x03	; 3
     dd2:	91 05       	cpc	r25, r1
     dd4:	91 f4       	brne	.+36     	; 0xdfa <.L67>

00000dd6 <.Loc.416>:
     dd6:	83 e2       	ldi	r24, 0x23	; 35
     dd8:	90 e0       	ldi	r25, 0x00	; 0
     dda:	fc 01       	movw	r30, r24
     ddc:	80 81       	ld	r24, Z

00000dde <.Loc.417>:
     dde:	88 2f       	mov	r24, r24
     de0:	90 e0       	ldi	r25, 0x00	; 0
     de2:	84 70       	andi	r24, 0x04	; 4
     de4:	99 27       	eor	r25, r25

00000de6 <.Loc.418>:
     de6:	00 97       	sbiw	r24, 0x00	; 0
     de8:	41 f0       	breq	.+16     	; 0xdfa <.L67>

00000dea <.Loc.419>:
     dea:	0e 94 23 02 	call	0x446	; 0x446 <ymotoruit>

00000dee <.Loc.420>:
     dee:	81 e0       	ldi	r24, 0x01	; 1
     df0:	90 e0       	ldi	r25, 0x00	; 0
     df2:	90 93 82 02 	sts	0x0282, r25	; 0x800282 <ybereikt+0x1>
     df6:	80 93 81 02 	sts	0x0281, r24	; 0x800281 <ybereikt>

00000dfa <.L67>:
        if (knopy == 4 && (PINB & (1 << PB1))){ymotoruit(); ybereikt = 1;}
     dfa:	89 81       	ldd	r24, Y+1	; 0x01
     dfc:	9a 81       	ldd	r25, Y+2	; 0x02
     dfe:	84 30       	cpi	r24, 0x04	; 4
     e00:	91 05       	cpc	r25, r1
     e02:	91 f4       	brne	.+36     	; 0xe28 <.L68>

00000e04 <.Loc.422>:
     e04:	83 e2       	ldi	r24, 0x23	; 35
     e06:	90 e0       	ldi	r25, 0x00	; 0
     e08:	fc 01       	movw	r30, r24
     e0a:	80 81       	ld	r24, Z

00000e0c <.Loc.423>:
     e0c:	88 2f       	mov	r24, r24
     e0e:	90 e0       	ldi	r25, 0x00	; 0
     e10:	82 70       	andi	r24, 0x02	; 2
     e12:	99 27       	eor	r25, r25

00000e14 <.Loc.424>:
     e14:	00 97       	sbiw	r24, 0x00	; 0
     e16:	41 f0       	breq	.+16     	; 0xe28 <.L68>

00000e18 <.Loc.425>:
     e18:	0e 94 23 02 	call	0x446	; 0x446 <ymotoruit>

00000e1c <.Loc.426>:
     e1c:	81 e0       	ldi	r24, 0x01	; 1
     e1e:	90 e0       	ldi	r25, 0x00	; 0
     e20:	90 93 82 02 	sts	0x0282, r25	; 0x800282 <ybereikt+0x1>
     e24:	80 93 81 02 	sts	0x0281, r24	; 0x800281 <ybereikt>

00000e28 <.L68>:
        if (knopy == 5 && (PINB & (1 << PB0))){ymotoruit(); ybereikt = 1;}
     e28:	89 81       	ldd	r24, Y+1	; 0x01
     e2a:	9a 81       	ldd	r25, Y+2	; 0x02
     e2c:	85 30       	cpi	r24, 0x05	; 5
     e2e:	91 05       	cpc	r25, r1
     e30:	91 f4       	brne	.+36     	; 0xe56 <.L64>

00000e32 <.Loc.428>:
     e32:	83 e2       	ldi	r24, 0x23	; 35
     e34:	90 e0       	ldi	r25, 0x00	; 0
     e36:	fc 01       	movw	r30, r24
     e38:	80 81       	ld	r24, Z

00000e3a <.Loc.429>:
     e3a:	88 2f       	mov	r24, r24
     e3c:	90 e0       	ldi	r25, 0x00	; 0
     e3e:	81 70       	andi	r24, 0x01	; 1
     e40:	99 27       	eor	r25, r25

00000e42 <.Loc.430>:
     e42:	00 97       	sbiw	r24, 0x00	; 0
     e44:	41 f0       	breq	.+16     	; 0xe56 <.L64>

00000e46 <.Loc.431>:
     e46:	0e 94 23 02 	call	0x446	; 0x446 <ymotoruit>

00000e4a <.Loc.432>:
     e4a:	81 e0       	ldi	r24, 0x01	; 1
     e4c:	90 e0       	ldi	r25, 0x00	; 0
     e4e:	90 93 82 02 	sts	0x0282, r25	; 0x800282 <ybereikt+0x1>
     e52:	80 93 81 02 	sts	0x0281, r24	; 0x800281 <ybereikt>

00000e56 <.L64>:
        while(ybereikt == 0)
     e56:	80 91 81 02 	lds	r24, 0x0281	; 0x800281 <ybereikt>
     e5a:	90 91 82 02 	lds	r25, 0x0282	; 0x800282 <ybereikt+0x1>
     e5e:	00 97       	sbiw	r24, 0x00	; 0
     e60:	09 f4       	brne	.+2      	; 0xe64 <.Loc.434>

00000e62 <L0^A>:
     e62:	84 cf       	rjmp	.-248    	; 0xd6c <.L70>

00000e64 <.Loc.434>:
        }

        vorigestaatknopy = knopy;
     e64:	89 81       	ldd	r24, Y+1	; 0x01
     e66:	9a 81       	ldd	r25, Y+2	; 0x02
     e68:	90 93 86 02 	sts	0x0286, r25	; 0x800286 <vorigestaatknopy.0+0x1>
     e6c:	80 93 85 02 	sts	0x0285, r24	; 0x800285 <vorigestaatknopy.0>

00000e70 <.L71>:
    }

}
     e70:	00 00       	nop
     e72:	e6 96       	adiw	r28, 0x36	; 54
     e74:	0f b6       	in	r0, 0x3f	; 63
     e76:	f8 94       	cli
     e78:	de bf       	out	0x3e, r29	; 62
     e7a:	0f be       	out	0x3f, r0	; 63
     e7c:	cd bf       	out	0x3d, r28	; 61
     e7e:	df 91       	pop	r29
     e80:	cf 91       	pop	r28
     e82:	08 95       	ret

00000e84 <bewegingzoppak>:

void bewegingzoppak(void) // beweging met z as en magneet aan zetten om bakje op te pakken en naar boven te brengen.
{
     e84:	cf 93       	push	r28
     e86:	df 93       	push	r29
     e88:	00 d0       	rcall	.+0      	; 0xe8a <L0^A>

00000e8a <L0^A>:
     e8a:	00 d0       	rcall	.+0      	; 0xe8c <L0^A>

00000e8c <L0^A>:
     e8c:	0f 92       	push	r0
     e8e:	0f 92       	push	r0
     e90:	cd b7       	in	r28, 0x3d	; 61
     e92:	de b7       	in	r29, 0x3e	; 62

00000e94 <.Loc.437>:
    int vorigestaatknopz = 0;
     e94:	1a 82       	std	Y+2, r1	; 0x02
     e96:	19 82       	std	Y+1, r1	; 0x01

00000e98 <.Loc.438>:
    int knopz0 = 1;
     e98:	81 e0       	ldi	r24, 0x01	; 1
     e9a:	90 e0       	ldi	r25, 0x00	; 0
     e9c:	9e 83       	std	Y+6, r25	; 0x06
     e9e:	8d 83       	std	Y+5, r24	; 0x05

00000ea0 <.Loc.439>:
    int knopz1 = 1;
     ea0:	81 e0       	ldi	r24, 0x01	; 1
     ea2:	90 e0       	ldi	r25, 0x00	; 0
     ea4:	98 87       	std	Y+8, r25	; 0x08
     ea6:	8f 83       	std	Y+7, r24	; 0x07

00000ea8 <.Loc.440>:
    int eenkeer = 0;
     ea8:	1c 82       	std	Y+4, r1	; 0x04
     eaa:	1b 82       	std	Y+3, r1	; 0x03

00000eac <.Loc.441>:
    if ((vorigestaatknopz == 0) && (eenkeer == 0))
     eac:	89 81       	ldd	r24, Y+1	; 0x01
     eae:	9a 81       	ldd	r25, Y+2	; 0x02
     eb0:	00 97       	sbiw	r24, 0x00	; 0
     eb2:	c1 f4       	brne	.+48     	; 0xee4 <.L73>

00000eb4 <.Loc.442>:
     eb4:	8b 81       	ldd	r24, Y+3	; 0x03
     eb6:	9c 81       	ldd	r25, Y+4	; 0x04
     eb8:	00 97       	sbiw	r24, 0x00	; 0
     eba:	a1 f4       	brne	.+40     	; 0xee4 <.L73>

00000ebc <.Loc.443>:
    {
        zmotorpositief();
     ebc:	0e 94 72 02 	call	0x4e4	; 0x4e4 <zmotorpositief>

00000ec0 <.Loc.444>:
        if(knopz1 == 1)
     ec0:	8f 81       	ldd	r24, Y+7	; 0x07
     ec2:	98 85       	ldd	r25, Y+8	; 0x08
     ec4:	81 30       	cpi	r24, 0x01	; 1
     ec6:	91 05       	cpc	r25, r1
     ec8:	69 f4       	brne	.+26     	; 0xee4 <.L73>

00000eca <.Loc.445>:
        {
        zmotoruit();
     eca:	0e 94 9e 02 	call	0x53c	; 0x53c <zmotoruit>

00000ece <.Loc.446>:
        magneetaan();
     ece:	0e 94 fe 02 	call	0x5fc	; 0x5fc <magneetaan>

00000ed2 <.Loc.447>:
        vorigestaatknopz = 1;
     ed2:	81 e0       	ldi	r24, 0x01	; 1
     ed4:	90 e0       	ldi	r25, 0x00	; 0
     ed6:	9a 83       	std	Y+2, r25	; 0x02
     ed8:	89 83       	std	Y+1, r24	; 0x01

00000eda <.Loc.448>:
        eenkeer++;
     eda:	8b 81       	ldd	r24, Y+3	; 0x03
     edc:	9c 81       	ldd	r25, Y+4	; 0x04
     ede:	01 96       	adiw	r24, 0x01	; 1
     ee0:	9c 83       	std	Y+4, r25	; 0x04
     ee2:	8b 83       	std	Y+3, r24	; 0x03

00000ee4 <.L73>:
        }
    }
    if ((vorigestaatknopz == 1) && (eenkeer == 1))
     ee4:	89 81       	ldd	r24, Y+1	; 0x01
     ee6:	9a 81       	ldd	r25, Y+2	; 0x02
     ee8:	81 30       	cpi	r24, 0x01	; 1
     eea:	91 05       	cpc	r25, r1
     eec:	81 f4       	brne	.+32     	; 0xf0e <.L75>

00000eee <.Loc.450>:
     eee:	8b 81       	ldd	r24, Y+3	; 0x03
     ef0:	9c 81       	ldd	r25, Y+4	; 0x04
     ef2:	81 30       	cpi	r24, 0x01	; 1
     ef4:	91 05       	cpc	r25, r1
     ef6:	59 f4       	brne	.+22     	; 0xf0e <.L75>

00000ef8 <.Loc.451>:
    {
        zmotornegatief();
     ef8:	0e 94 b8 02 	call	0x570	; 0x570 <zmotornegatief>

00000efc <.Loc.452>:
        if(knopz0 == 1)
     efc:	8d 81       	ldd	r24, Y+5	; 0x05
     efe:	9e 81       	ldd	r25, Y+6	; 0x06
     f00:	81 30       	cpi	r24, 0x01	; 1
     f02:	91 05       	cpc	r25, r1
     f04:	21 f4       	brne	.+8      	; 0xf0e <.L75>

00000f06 <.Loc.453>:
        {
        zmotoruit();
     f06:	0e 94 9e 02 	call	0x53c	; 0x53c <zmotoruit>

00000f0a <.Loc.454>:
        vorigestaatknopz = 0;
     f0a:	1a 82       	std	Y+2, r1	; 0x02
     f0c:	19 82       	std	Y+1, r1	; 0x01

00000f0e <.L75>:
        }

    }
}
     f0e:	00 00       	nop
     f10:	28 96       	adiw	r28, 0x08	; 8
     f12:	0f b6       	in	r0, 0x3f	; 63
     f14:	f8 94       	cli
     f16:	de bf       	out	0x3e, r29	; 62
     f18:	0f be       	out	0x3f, r0	; 63
     f1a:	cd bf       	out	0x3d, r28	; 61
     f1c:	df 91       	pop	r29
     f1e:	cf 91       	pop	r28
     f20:	08 95       	ret

00000f22 <bewegingzneerzet>:



void bewegingzneerzet(void) // beweging met z as en magneet uit zetten om bakje neer te zetten en arm weer terug naar start positie
{
     f22:	cf 93       	push	r28
     f24:	df 93       	push	r29
     f26:	00 d0       	rcall	.+0      	; 0xf28 <L0^A>

00000f28 <L0^A>:
     f28:	00 d0       	rcall	.+0      	; 0xf2a <L0^A>

00000f2a <L0^A>:
     f2a:	0f 92       	push	r0
     f2c:	0f 92       	push	r0
     f2e:	cd b7       	in	r28, 0x3d	; 61
     f30:	de b7       	in	r29, 0x3e	; 62

00000f32 <.Loc.457>:
    int vorigestaatknopz = 0;
     f32:	1a 82       	std	Y+2, r1	; 0x02
     f34:	19 82       	std	Y+1, r1	; 0x01

00000f36 <.Loc.458>:
    int knopz0 = 1;
     f36:	81 e0       	ldi	r24, 0x01	; 1
     f38:	90 e0       	ldi	r25, 0x00	; 0
     f3a:	9e 83       	std	Y+6, r25	; 0x06
     f3c:	8d 83       	std	Y+5, r24	; 0x05

00000f3e <.Loc.459>:
    int knopz1 = 1;
     f3e:	81 e0       	ldi	r24, 0x01	; 1
     f40:	90 e0       	ldi	r25, 0x00	; 0
     f42:	98 87       	std	Y+8, r25	; 0x08
     f44:	8f 83       	std	Y+7, r24	; 0x07

00000f46 <.Loc.460>:
    int eenkeer = 0;
     f46:	1c 82       	std	Y+4, r1	; 0x04
     f48:	1b 82       	std	Y+3, r1	; 0x03

00000f4a <.Loc.461>:
    if ((vorigestaatknopz == 0) && (eenkeer == 0))
     f4a:	89 81       	ldd	r24, Y+1	; 0x01
     f4c:	9a 81       	ldd	r25, Y+2	; 0x02
     f4e:	00 97       	sbiw	r24, 0x00	; 0
     f50:	c1 f4       	brne	.+48     	; 0xf82 <.L77>

00000f52 <.Loc.462>:
     f52:	8b 81       	ldd	r24, Y+3	; 0x03
     f54:	9c 81       	ldd	r25, Y+4	; 0x04
     f56:	00 97       	sbiw	r24, 0x00	; 0
     f58:	a1 f4       	brne	.+40     	; 0xf82 <.L77>

00000f5a <.Loc.463>:
    {
        zmotorpositief();
     f5a:	0e 94 72 02 	call	0x4e4	; 0x4e4 <zmotorpositief>

00000f5e <.Loc.464>:
        if(knopz1 == 1)
     f5e:	8f 81       	ldd	r24, Y+7	; 0x07
     f60:	98 85       	ldd	r25, Y+8	; 0x08
     f62:	81 30       	cpi	r24, 0x01	; 1
     f64:	91 05       	cpc	r25, r1
     f66:	69 f4       	brne	.+26     	; 0xf82 <.L77>

00000f68 <.Loc.465>:
        {
        zmotoruit();
     f68:	0e 94 9e 02 	call	0x53c	; 0x53c <zmotoruit>

00000f6c <.Loc.466>:
        magneetuit();
     f6c:	0e 94 0f 03 	call	0x61e	; 0x61e <magneetuit>

00000f70 <.Loc.467>:
        vorigestaatknopz = 1;
     f70:	81 e0       	ldi	r24, 0x01	; 1
     f72:	90 e0       	ldi	r25, 0x00	; 0
     f74:	9a 83       	std	Y+2, r25	; 0x02
     f76:	89 83       	std	Y+1, r24	; 0x01

00000f78 <.Loc.468>:
        eenkeer++;
     f78:	8b 81       	ldd	r24, Y+3	; 0x03
     f7a:	9c 81       	ldd	r25, Y+4	; 0x04
     f7c:	01 96       	adiw	r24, 0x01	; 1
     f7e:	9c 83       	std	Y+4, r25	; 0x04
     f80:	8b 83       	std	Y+3, r24	; 0x03

00000f82 <.L77>:
        }
    }
    if ((vorigestaatknopz == 1) && (eenkeer == 1))
     f82:	89 81       	ldd	r24, Y+1	; 0x01
     f84:	9a 81       	ldd	r25, Y+2	; 0x02
     f86:	81 30       	cpi	r24, 0x01	; 1
     f88:	91 05       	cpc	r25, r1
     f8a:	81 f4       	brne	.+32     	; 0xfac <.L79>

00000f8c <.Loc.470>:
     f8c:	8b 81       	ldd	r24, Y+3	; 0x03
     f8e:	9c 81       	ldd	r25, Y+4	; 0x04
     f90:	81 30       	cpi	r24, 0x01	; 1
     f92:	91 05       	cpc	r25, r1
     f94:	59 f4       	brne	.+22     	; 0xfac <.L79>

00000f96 <.Loc.471>:
    {
        zmotornegatief();
     f96:	0e 94 b8 02 	call	0x570	; 0x570 <zmotornegatief>

00000f9a <.Loc.472>:
        if(knopz0 == 1)
     f9a:	8d 81       	ldd	r24, Y+5	; 0x05
     f9c:	9e 81       	ldd	r25, Y+6	; 0x06
     f9e:	81 30       	cpi	r24, 0x01	; 1
     fa0:	91 05       	cpc	r25, r1
     fa2:	21 f4       	brne	.+8      	; 0xfac <.L79>

00000fa4 <.Loc.473>:
        {
        zmotoruit();
     fa4:	0e 94 9e 02 	call	0x53c	; 0x53c <zmotoruit>

00000fa8 <.Loc.474>:
        vorigestaatknopz = 0;
     fa8:	1a 82       	std	Y+2, r1	; 0x02
     faa:	19 82       	std	Y+1, r1	; 0x01

00000fac <.L79>:
        }

    }
}
     fac:	00 00       	nop
     fae:	28 96       	adiw	r28, 0x08	; 8
     fb0:	0f b6       	in	r0, 0x3f	; 63
     fb2:	f8 94       	cli
     fb4:	de bf       	out	0x3e, r29	; 62
     fb6:	0f be       	out	0x3f, r0	; 63
     fb8:	cd bf       	out	0x3d, r28	; 61
     fba:	df 91       	pop	r29
     fbc:	cf 91       	pop	r28
     fbe:	08 95       	ret

00000fc0 <main>:


int main() //
{
     fc0:	cf 93       	push	r28
     fc2:	df 93       	push	r29
     fc4:	0f 92       	push	r0
     fc6:	0f 92       	push	r0
     fc8:	cd b7       	in	r28, 0x3d	; 61
     fca:	de b7       	in	r29, 0x3e	; 62

00000fcc <.Loc.477>:
    confic();
     fcc:	0e 94 2a 04 	call	0x854	; 0x854 <confic>

00000fd0 <.Loc.478>:
    mainhumaninterface();
     fd0:	0e 94 ee 03 	call	0x7dc	; 0x7dc <mainhumaninterface>

00000fd4 <.Loc.479>:
    int LOCATIE;
    while (START == 1)
     fd4:	20 c0       	rjmp	.+64     	; 0x1016 <.L81>

00000fd6 <.L82>:
    {
        LOCATIE = LOCATIE1;
     fd6:	80 91 78 02 	lds	r24, 0x0278	; 0x800278 <LOCATIE1>
     fda:	90 91 79 02 	lds	r25, 0x0279	; 0x800279 <LOCATIE1+0x1>
     fde:	9a 83       	std	Y+2, r25	; 0x02
     fe0:	89 83       	std	Y+1, r24	; 0x01

00000fe2 <.Loc.481>:

        bewegingx(LOCATIE);
     fe2:	89 81       	ldd	r24, Y+1	; 0x01
     fe4:	9a 81       	ldd	r25, Y+2	; 0x02
     fe6:	0e 94 9e 04 	call	0x93c	; 0x93c <bewegingx>

00000fea <.Loc.482>:
        bewegingy(LOCATIE);
     fea:	89 81       	ldd	r24, Y+1	; 0x01
     fec:	9a 81       	ldd	r25, Y+2	; 0x02
     fee:	0e 94 f0 05 	call	0xbe0	; 0xbe0 <bewegingy>

00000ff2 <.Loc.483>:
        bewegingzoppak();
     ff2:	0e 94 42 07 	call	0xe84	; 0xe84 <bewegingzoppak>

00000ff6 <.Loc.484>:


        LOCATIE = LOCATIE2;
     ff6:	80 91 7a 02 	lds	r24, 0x027A	; 0x80027a <LOCATIE2>
     ffa:	90 91 7b 02 	lds	r25, 0x027B	; 0x80027b <LOCATIE2+0x1>
     ffe:	9a 83       	std	Y+2, r25	; 0x02
    1000:	89 83       	std	Y+1, r24	; 0x01

00001002 <.Loc.485>:

        bewegingx(LOCATIE);
    1002:	89 81       	ldd	r24, Y+1	; 0x01
    1004:	9a 81       	ldd	r25, Y+2	; 0x02
    1006:	0e 94 9e 04 	call	0x93c	; 0x93c <bewegingx>

0000100a <.Loc.486>:
        bewegingy(LOCATIE);
    100a:	89 81       	ldd	r24, Y+1	; 0x01
    100c:	9a 81       	ldd	r25, Y+2	; 0x02
    100e:	0e 94 f0 05 	call	0xbe0	; 0xbe0 <bewegingy>

00001012 <.Loc.487>:
        bewegingzneerzet();
    1012:	0e 94 91 07 	call	0xf22	; 0xf22 <bewegingzneerzet>

00001016 <.L81>:
    while (START == 1)
    1016:	80 91 10 02 	lds	r24, 0x0210	; 0x800210 <START>
    101a:	90 91 11 02 	lds	r25, 0x0211	; 0x800211 <START+0x1>
    101e:	81 30       	cpi	r24, 0x01	; 1
    1020:	91 05       	cpc	r25, r1
    1022:	c9 f2       	breq	.-78     	; 0xfd6 <.L82>
    1024:	80 e0       	ldi	r24, 0x00	; 0
    1026:	90 e0       	ldi	r25, 0x00	; 0

00001028 <.Loc.489>:


    }

}
    1028:	0f 90       	pop	r0
    102a:	0f 90       	pop	r0
    102c:	df 91       	pop	r29
    102e:	cf 91       	pop	r28
    1030:	08 95       	ret

00001032 <_exit>:
    1032:	f8 94       	cli

00001034 <__stop_program>:
    1034:	ff cf       	rjmp	.-2      	; 0x1034 <__stop_program>
