
bin\Debug\clankerportaalkraan.elf:     file format elf32-avr

Sections:
Idx Name          Size      VMA       LMA       File off  Algn
  0 .data         00000000  00800200  00001152  00001206  2**0
                  CONTENTS, ALLOC, LOAD, DATA
  1 .text         00001152  00000000  00000000  000000b4  2**1
                  CONTENTS, ALLOC, LOAD, READONLY, CODE
  2 .bss          0000000a  00800200  00800200  00001206  2**0
                  ALLOC
  3 .fuse         00000003  00820000  00820000  00001206  2**0
                  CONTENTS, ALLOC, LOAD, DATA
  4 .comment      00000012  00000000  00000000  00001209  2**0
                  CONTENTS, READONLY
  5 .note.gnu.avr.deviceinfo 00000040  00000000  00000000  0000121c  2**2
                  CONTENTS, READONLY, OCTETS
  6 .debug_aranges 00000078  00000000  00000000  00001260  2**3
                  CONTENTS, READONLY, DEBUGGING, OCTETS
  7 .debug_info   00001190  00000000  00000000  000012d8  2**0
                  CONTENTS, READONLY, DEBUGGING, OCTETS
  8 .debug_abbrev 00000dc0  00000000  00000000  00002468  2**0
                  CONTENTS, READONLY, DEBUGGING, OCTETS
  9 .debug_line   00000d98  00000000  00000000  00003228  2**0
                  CONTENTS, READONLY, DEBUGGING, OCTETS
 10 .debug_frame  0000031c  00000000  00000000  00003fc0  2**2
                  CONTENTS, READONLY, DEBUGGING, OCTETS
 11 .debug_str    00000698  00000000  00000000  000042dc  2**0
                  CONTENTS, READONLY, DEBUGGING, OCTETS
 12 .debug_line_str 00000162  00000000  00000000  00004974  2**0
                  CONTENTS, READONLY, DEBUGGING, OCTETS

Disassembly of section .text:

00000000 <__vectors>:
       0:	0c 94 72 00 	jmp	0xe4	; 0xe4 <__ctors_end>
       4:	0c 94 86 00 	jmp	0x10c	; 0x10c <__bad_interrupt>
       8:	0c 94 86 00 	jmp	0x10c	; 0x10c <__bad_interrupt>
       c:	0c 94 86 00 	jmp	0x10c	; 0x10c <__bad_interrupt>
      10:	0c 94 86 00 	jmp	0x10c	; 0x10c <__bad_interrupt>
      14:	0c 94 86 00 	jmp	0x10c	; 0x10c <__bad_interrupt>
      18:	0c 94 86 00 	jmp	0x10c	; 0x10c <__bad_interrupt>
      1c:	0c 94 86 00 	jmp	0x10c	; 0x10c <__bad_interrupt>
      20:	0c 94 86 00 	jmp	0x10c	; 0x10c <__bad_interrupt>
      24:	0c 94 bc 00 	jmp	0x178	; 0x178 <__vector_9>
      28:	0c 94 86 00 	jmp	0x10c	; 0x10c <__bad_interrupt>
      2c:	0c 94 86 00 	jmp	0x10c	; 0x10c <__bad_interrupt>
      30:	0c 94 86 00 	jmp	0x10c	; 0x10c <__bad_interrupt>
      34:	0c 94 86 00 	jmp	0x10c	; 0x10c <__bad_interrupt>
      38:	0c 94 86 00 	jmp	0x10c	; 0x10c <__bad_interrupt>
      3c:	0c 94 86 00 	jmp	0x10c	; 0x10c <__bad_interrupt>
      40:	0c 94 86 00 	jmp	0x10c	; 0x10c <__bad_interrupt>
      44:	0c 94 86 00 	jmp	0x10c	; 0x10c <__bad_interrupt>
      48:	0c 94 86 00 	jmp	0x10c	; 0x10c <__bad_interrupt>
      4c:	0c 94 86 00 	jmp	0x10c	; 0x10c <__bad_interrupt>
      50:	0c 94 86 00 	jmp	0x10c	; 0x10c <__bad_interrupt>
      54:	0c 94 9e 00 	jmp	0x13c	; 0x13c <__vector_21>
      58:	0c 94 86 00 	jmp	0x10c	; 0x10c <__bad_interrupt>
      5c:	0c 94 86 00 	jmp	0x10c	; 0x10c <__bad_interrupt>
      60:	0c 94 86 00 	jmp	0x10c	; 0x10c <__bad_interrupt>
      64:	0c 94 86 00 	jmp	0x10c	; 0x10c <__bad_interrupt>
      68:	0c 94 86 00 	jmp	0x10c	; 0x10c <__bad_interrupt>
      6c:	0c 94 86 00 	jmp	0x10c	; 0x10c <__bad_interrupt>
      70:	0c 94 86 00 	jmp	0x10c	; 0x10c <__bad_interrupt>
      74:	0c 94 86 00 	jmp	0x10c	; 0x10c <__bad_interrupt>
      78:	0c 94 86 00 	jmp	0x10c	; 0x10c <__bad_interrupt>
      7c:	0c 94 86 00 	jmp	0x10c	; 0x10c <__bad_interrupt>
      80:	0c 94 86 00 	jmp	0x10c	; 0x10c <__bad_interrupt>
      84:	0c 94 86 00 	jmp	0x10c	; 0x10c <__bad_interrupt>
      88:	0c 94 86 00 	jmp	0x10c	; 0x10c <__bad_interrupt>
      8c:	0c 94 86 00 	jmp	0x10c	; 0x10c <__bad_interrupt>
      90:	0c 94 86 00 	jmp	0x10c	; 0x10c <__bad_interrupt>
      94:	0c 94 86 00 	jmp	0x10c	; 0x10c <__bad_interrupt>
      98:	0c 94 86 00 	jmp	0x10c	; 0x10c <__bad_interrupt>
      9c:	0c 94 86 00 	jmp	0x10c	; 0x10c <__bad_interrupt>
      a0:	0c 94 86 00 	jmp	0x10c	; 0x10c <__bad_interrupt>
      a4:	0c 94 86 00 	jmp	0x10c	; 0x10c <__bad_interrupt>
      a8:	0c 94 86 00 	jmp	0x10c	; 0x10c <__bad_interrupt>
      ac:	0c 94 86 00 	jmp	0x10c	; 0x10c <__bad_interrupt>
      b0:	0c 94 86 00 	jmp	0x10c	; 0x10c <__bad_interrupt>
      b4:	0c 94 86 00 	jmp	0x10c	; 0x10c <__bad_interrupt>
      b8:	0c 94 86 00 	jmp	0x10c	; 0x10c <__bad_interrupt>
      bc:	0c 94 86 00 	jmp	0x10c	; 0x10c <__bad_interrupt>
      c0:	0c 94 86 00 	jmp	0x10c	; 0x10c <__bad_interrupt>
      c4:	0c 94 86 00 	jmp	0x10c	; 0x10c <__bad_interrupt>
      c8:	0c 94 86 00 	jmp	0x10c	; 0x10c <__bad_interrupt>
      cc:	0c 94 86 00 	jmp	0x10c	; 0x10c <__bad_interrupt>
      d0:	0c 94 86 00 	jmp	0x10c	; 0x10c <__bad_interrupt>
      d4:	0c 94 86 00 	jmp	0x10c	; 0x10c <__bad_interrupt>
      d8:	0c 94 86 00 	jmp	0x10c	; 0x10c <__bad_interrupt>
      dc:	0c 94 86 00 	jmp	0x10c	; 0x10c <__bad_interrupt>
      e0:	0c 94 86 00 	jmp	0x10c	; 0x10c <__bad_interrupt>

000000e4 <__ctors_end>:
      e4:	11 24       	eor	r1, r1
      e6:	1f be       	out	0x3f, r1	; 63
      e8:	cf ef       	ldi	r28, 0xFF	; 255
      ea:	d1 e2       	ldi	r29, 0x21	; 33
      ec:	de bf       	out	0x3e, r29	; 62
      ee:	cd bf       	out	0x3d, r28	; 61
      f0:	00 e0       	ldi	r16, 0x00	; 0
      f2:	0c bf       	out	0x3c, r16	; 60

000000f4 <__do_clear_bss>:
      f4:	22 e0       	ldi	r18, 0x02	; 2

000000f6 <.Loc.1>:
      f6:	a0 e0       	ldi	r26, 0x00	; 0

000000f8 <.Loc.2>:
      f8:	b2 e0       	ldi	r27, 0x02	; 2

000000fa <.Loc.3>:
      fa:	01 c0       	rjmp	.+2      	; 0xfe <.Loc.5>

000000fc <.Loc.4>:
      fc:	1d 92       	st	X+, r1

000000fe <.Loc.5>:
      fe:	aa 30       	cpi	r26, 0x0A	; 10

00000100 <.Loc.6>:
     100:	b2 07       	cpc	r27, r18

00000102 <.Loc.7>:
     102:	e1 f7       	brne	.-8      	; 0xfc <.Loc.4>

00000104 <L0^A>:
     104:	0e 94 78 07 	call	0xef0	; 0xef0 <main>
     108:	0c 94 a7 08 	jmp	0x114e	; 0x114e <_exit>

0000010c <__bad_interrupt>:
     10c:	0c 94 00 00 	jmp	0	; 0x0 <__vectors>

00000110 <config>:
//delay defines
#define DEBOUNCE_MS 15
#define DEBOUNCE 10

void config(void)// zorgt ervoor dat alles goed geconfigureerd wordt.
{
     110:	cf 93       	push	r28
     112:	df 93       	push	r29
     114:	cd b7       	in	r28, 0x3d	; 61
     116:	de b7       	in	r29, 0x3e	; 62

00000118 <.Loc.1>:
    zmotorconfig();
     118:	0e 94 4a 02 	call	0x494	; 0x494 <zmotorconfig>

0000011c <.Loc.2>:
    magneetconfig();
     11c:	0e 94 ea 02 	call	0x5d4	; 0x5d4 <magneetconfig>

00000120 <.Loc.3>:
    zknoppenconfig();
     120:	0e 94 bc 01 	call	0x378	; 0x378 <zknoppenconfig>

00000124 <.Loc.4>:
    yknoppenconfig();
     124:	0e 94 e8 01 	call	0x3d0	; 0x3d0 <yknoppenconfig>

00000128 <.Loc.5>:
    ymotorconfig();
     128:	0e 94 9a 02 	call	0x534	; 0x534 <ymotorconfig>

0000012c <.Loc.6>:
    timer0config();
     12c:	0e 94 78 01 	call	0x2f0	; 0x2f0 <timer0config>

00000130 <.Loc.7>:
    interruptconfig();
     130:	0e 94 98 01 	call	0x330	; 0x330 <interruptconfig>

00000134 <.Loc.8>:
}
     134:	00 00       	nop
     136:	df 91       	pop	r29
     138:	cf 91       	pop	r28
     13a:	08 95       	ret

0000013c <__vector_21>:
volatile int ybereikt = 0;
volatile int knopy;

//interrupts
ISR(TIMER0_COMPA_vect)
{
     13c:	1f 92       	push	r1
     13e:	0f 92       	push	r0
     140:	0f b6       	in	r0, 0x3f	; 63
     142:	0f 92       	push	r0
     144:	11 24       	eor	r1, r1
     146:	8f 93       	push	r24
     148:	9f 93       	push	r25
     14a:	cf 93       	push	r28
     14c:	df 93       	push	r29
     14e:	cd b7       	in	r28, 0x3d	; 61
     150:	de b7       	in	r29, 0x3e	; 62

00000152 <.Loc.10>:
    millisec++;
     152:	80 91 00 02 	lds	r24, 0x0200	; 0x800200 <millisec>
     156:	90 91 01 02 	lds	r25, 0x0201	; 0x800201 <millisec+0x1>
     15a:	01 96       	adiw	r24, 0x01	; 1
     15c:	90 93 01 02 	sts	0x0201, r25	; 0x800201 <millisec+0x1>
     160:	80 93 00 02 	sts	0x0200, r24	; 0x800200 <millisec>

00000164 <.Loc.11>:
}
     164:	00 00       	nop
     166:	df 91       	pop	r29
     168:	cf 91       	pop	r28
     16a:	9f 91       	pop	r25
     16c:	8f 91       	pop	r24
     16e:	0f 90       	pop	r0
     170:	0f be       	out	0x3f, r0	; 63
     172:	0f 90       	pop	r0
     174:	1f 90       	pop	r1
     176:	18 95       	reti

00000178 <__vector_9>:

ISR(PCINT0_vect)
{
     178:	1f 92       	push	r1
     17a:	0f 92       	push	r0
     17c:	0f b6       	in	r0, 0x3f	; 63
     17e:	0f 92       	push	r0
     180:	11 24       	eor	r1, r1
     182:	0b b6       	in	r0, 0x3b	; 59
     184:	0f 92       	push	r0
     186:	2f 93       	push	r18
     188:	3f 93       	push	r19
     18a:	4f 93       	push	r20
     18c:	5f 93       	push	r21
     18e:	8f 93       	push	r24
     190:	9f 93       	push	r25
     192:	ef 93       	push	r30
     194:	ff 93       	push	r31
     196:	cf 93       	push	r28
     198:	df 93       	push	r29
     19a:	0f 92       	push	r0
     19c:	0f 92       	push	r0
     19e:	cd b7       	in	r28, 0x3d	; 61
     1a0:	de b7       	in	r29, 0x3e	; 62

000001a2 <.Loc.13>:
    uint16_t now = millisec;
     1a2:	80 91 00 02 	lds	r24, 0x0200	; 0x800200 <millisec>
     1a6:	90 91 01 02 	lds	r25, 0x0201	; 0x800201 <millisec+0x1>
     1aa:	9a 83       	std	Y+2, r25	; 0x02
     1ac:	89 83       	std	Y+1, r24	; 0x01

000001ae <.Loc.14>:

    if ((now - last_pcint_time) < DEBOUNCE_MS)
     1ae:	80 91 02 02 	lds	r24, 0x0202	; 0x800202 <last_pcint_time>
     1b2:	90 91 03 02 	lds	r25, 0x0203	; 0x800203 <last_pcint_time+0x1>
     1b6:	29 81       	ldd	r18, Y+1	; 0x01
     1b8:	3a 81       	ldd	r19, Y+2	; 0x02
     1ba:	a9 01       	movw	r20, r18
     1bc:	48 1b       	sub	r20, r24
     1be:	59 0b       	sbc	r21, r25
     1c0:	ca 01       	movw	r24, r20

000001c2 <.Loc.15>:
     1c2:	8e 30       	cpi	r24, 0x0E	; 14
     1c4:	91 05       	cpc	r25, r1
     1c6:	09 f0       	breq	.+2      	; 0x1ca <L0^A>

000001c8 <L0^A>:
     1c8:	08 f4       	brcc	.+2      	; 0x1cc <.Loc.16>

000001ca <L0^A>:
     1ca:	7e c0       	rjmp	.+252    	; 0x2c8 <.L10>

000001cc <.Loc.16>:
        return;

    last_pcint_time = now;
     1cc:	89 81       	ldd	r24, Y+1	; 0x01
     1ce:	9a 81       	ldd	r25, Y+2	; 0x02
     1d0:	90 93 03 02 	sts	0x0203, r25	; 0x800203 <last_pcint_time+0x1>
     1d4:	80 93 02 02 	sts	0x0202, r24	; 0x800202 <last_pcint_time>

000001d8 <.Loc.17>:


        if (knopy == 1 && (!(PIN_Y1 & (1 << KNOP_Y1)))){ybereikt = 1;}
     1d8:	80 91 06 02 	lds	r24, 0x0206	; 0x800206 <knopy>
     1dc:	90 91 07 02 	lds	r25, 0x0207	; 0x800207 <knopy+0x1>

000001e0 <.Loc.18>:
     1e0:	81 30       	cpi	r24, 0x01	; 1
     1e2:	91 05       	cpc	r25, r1
     1e4:	89 f4       	brne	.+34     	; 0x208 <.L6>

000001e6 <.Loc.19>:
     1e6:	83 e2       	ldi	r24, 0x23	; 35
     1e8:	90 e0       	ldi	r25, 0x00	; 0
     1ea:	fc 01       	movw	r30, r24
     1ec:	80 81       	ld	r24, Z

000001ee <.Loc.20>:
     1ee:	88 2f       	mov	r24, r24
     1f0:	90 e0       	ldi	r25, 0x00	; 0
     1f2:	81 70       	andi	r24, 0x01	; 1
     1f4:	99 27       	eor	r25, r25

000001f6 <.Loc.21>:
     1f6:	00 97       	sbiw	r24, 0x00	; 0
     1f8:	39 f4       	brne	.+14     	; 0x208 <.L6>

000001fa <.Loc.22>:
     1fa:	81 e0       	ldi	r24, 0x01	; 1
     1fc:	90 e0       	ldi	r25, 0x00	; 0
     1fe:	90 93 05 02 	sts	0x0205, r25	; 0x800205 <ybereikt+0x1>
     202:	80 93 04 02 	sts	0x0204, r24	; 0x800204 <ybereikt>
     206:	61 c0       	rjmp	.+194    	; 0x2ca <.L3>

00000208 <.L6>:
        else if (knopy == 2 && (!(PIN_Y2 & (1 << KNOP_Y2)))){ybereikt = 1;}
     208:	80 91 06 02 	lds	r24, 0x0206	; 0x800206 <knopy>
     20c:	90 91 07 02 	lds	r25, 0x0207	; 0x800207 <knopy+0x1>

00000210 <.Loc.24>:
     210:	82 30       	cpi	r24, 0x02	; 2
     212:	91 05       	cpc	r25, r1
     214:	89 f4       	brne	.+34     	; 0x238 <.L7>

00000216 <.Loc.25>:
     216:	83 e2       	ldi	r24, 0x23	; 35
     218:	90 e0       	ldi	r25, 0x00	; 0
     21a:	fc 01       	movw	r30, r24
     21c:	80 81       	ld	r24, Z

0000021e <.Loc.26>:
     21e:	88 2f       	mov	r24, r24
     220:	90 e0       	ldi	r25, 0x00	; 0
     222:	82 70       	andi	r24, 0x02	; 2
     224:	99 27       	eor	r25, r25

00000226 <.Loc.27>:
     226:	00 97       	sbiw	r24, 0x00	; 0
     228:	39 f4       	brne	.+14     	; 0x238 <.L7>

0000022a <.Loc.28>:
     22a:	81 e0       	ldi	r24, 0x01	; 1
     22c:	90 e0       	ldi	r25, 0x00	; 0
     22e:	90 93 05 02 	sts	0x0205, r25	; 0x800205 <ybereikt+0x1>
     232:	80 93 04 02 	sts	0x0204, r24	; 0x800204 <ybereikt>
     236:	49 c0       	rjmp	.+146    	; 0x2ca <.L3>

00000238 <.L7>:
        else if (knopy == 3 && (!(PIN_Y3 & (1 << KNOP_Y3)))){ybereikt = 1;}
     238:	80 91 06 02 	lds	r24, 0x0206	; 0x800206 <knopy>
     23c:	90 91 07 02 	lds	r25, 0x0207	; 0x800207 <knopy+0x1>

00000240 <.Loc.30>:
     240:	83 30       	cpi	r24, 0x03	; 3
     242:	91 05       	cpc	r25, r1
     244:	89 f4       	brne	.+34     	; 0x268 <.L8>

00000246 <.Loc.31>:
     246:	83 e2       	ldi	r24, 0x23	; 35
     248:	90 e0       	ldi	r25, 0x00	; 0
     24a:	fc 01       	movw	r30, r24
     24c:	80 81       	ld	r24, Z

0000024e <.Loc.32>:
     24e:	88 2f       	mov	r24, r24
     250:	90 e0       	ldi	r25, 0x00	; 0
     252:	84 70       	andi	r24, 0x04	; 4
     254:	99 27       	eor	r25, r25

00000256 <.Loc.33>:
     256:	00 97       	sbiw	r24, 0x00	; 0
     258:	39 f4       	brne	.+14     	; 0x268 <.L8>

0000025a <.Loc.34>:
     25a:	81 e0       	ldi	r24, 0x01	; 1
     25c:	90 e0       	ldi	r25, 0x00	; 0
     25e:	90 93 05 02 	sts	0x0205, r25	; 0x800205 <ybereikt+0x1>
     262:	80 93 04 02 	sts	0x0204, r24	; 0x800204 <ybereikt>
     266:	31 c0       	rjmp	.+98     	; 0x2ca <.L3>

00000268 <.L8>:
        else if (knopy == 4 && (!(PIN_Y4 & (1 << KNOP_Y4)))){ybereikt = 1;}
     268:	80 91 06 02 	lds	r24, 0x0206	; 0x800206 <knopy>
     26c:	90 91 07 02 	lds	r25, 0x0207	; 0x800207 <knopy+0x1>

00000270 <.Loc.36>:
     270:	84 30       	cpi	r24, 0x04	; 4
     272:	91 05       	cpc	r25, r1
     274:	89 f4       	brne	.+34     	; 0x298 <.L9>

00000276 <.Loc.37>:
     276:	83 e2       	ldi	r24, 0x23	; 35
     278:	90 e0       	ldi	r25, 0x00	; 0
     27a:	fc 01       	movw	r30, r24
     27c:	80 81       	ld	r24, Z

0000027e <.Loc.38>:
     27e:	88 2f       	mov	r24, r24
     280:	90 e0       	ldi	r25, 0x00	; 0
     282:	88 70       	andi	r24, 0x08	; 8
     284:	99 27       	eor	r25, r25

00000286 <.Loc.39>:
     286:	00 97       	sbiw	r24, 0x00	; 0
     288:	39 f4       	brne	.+14     	; 0x298 <.L9>

0000028a <.Loc.40>:
     28a:	81 e0       	ldi	r24, 0x01	; 1
     28c:	90 e0       	ldi	r25, 0x00	; 0
     28e:	90 93 05 02 	sts	0x0205, r25	; 0x800205 <ybereikt+0x1>
     292:	80 93 04 02 	sts	0x0204, r24	; 0x800204 <ybereikt>
     296:	19 c0       	rjmp	.+50     	; 0x2ca <.L3>

00000298 <.L9>:
        else if (knopy == 5 && (!(PIN_Y5 & (1 << KNOP_Y5)))){ybereikt = 1;}
     298:	80 91 06 02 	lds	r24, 0x0206	; 0x800206 <knopy>
     29c:	90 91 07 02 	lds	r25, 0x0207	; 0x800207 <knopy+0x1>

000002a0 <.Loc.42>:
     2a0:	85 30       	cpi	r24, 0x05	; 5
     2a2:	91 05       	cpc	r25, r1
     2a4:	91 f4       	brne	.+36     	; 0x2ca <.L3>

000002a6 <.Loc.43>:
     2a6:	83 e2       	ldi	r24, 0x23	; 35
     2a8:	90 e0       	ldi	r25, 0x00	; 0
     2aa:	fc 01       	movw	r30, r24
     2ac:	80 81       	ld	r24, Z

000002ae <.Loc.44>:
     2ae:	88 2f       	mov	r24, r24
     2b0:	90 e0       	ldi	r25, 0x00	; 0
     2b2:	80 71       	andi	r24, 0x10	; 16
     2b4:	99 27       	eor	r25, r25

000002b6 <.Loc.45>:
     2b6:	00 97       	sbiw	r24, 0x00	; 0
     2b8:	41 f4       	brne	.+16     	; 0x2ca <.L3>

000002ba <.Loc.46>:
     2ba:	81 e0       	ldi	r24, 0x01	; 1
     2bc:	90 e0       	ldi	r25, 0x00	; 0
     2be:	90 93 05 02 	sts	0x0205, r25	; 0x800205 <ybereikt+0x1>
     2c2:	80 93 04 02 	sts	0x0204, r24	; 0x800204 <ybereikt>
     2c6:	01 c0       	rjmp	.+2      	; 0x2ca <.L3>

000002c8 <.L10>:
	...

000002ca <.L3>:

}
     2ca:	0f 90       	pop	r0
     2cc:	0f 90       	pop	r0
     2ce:	df 91       	pop	r29
     2d0:	cf 91       	pop	r28
     2d2:	ff 91       	pop	r31
     2d4:	ef 91       	pop	r30
     2d6:	9f 91       	pop	r25
     2d8:	8f 91       	pop	r24
     2da:	5f 91       	pop	r21
     2dc:	4f 91       	pop	r20
     2de:	3f 91       	pop	r19
     2e0:	2f 91       	pop	r18
     2e2:	0f 90       	pop	r0
     2e4:	0b be       	out	0x3b, r0	; 59
     2e6:	0f 90       	pop	r0
     2e8:	0f be       	out	0x3f, r0	; 63
     2ea:	0f 90       	pop	r0
     2ec:	1f 90       	pop	r1
     2ee:	18 95       	reti

000002f0 <timer0config>:

void timer0config(void)
{
     2f0:	cf 93       	push	r28
     2f2:	df 93       	push	r29
     2f4:	cd b7       	in	r28, 0x3d	; 61
     2f6:	de b7       	in	r29, 0x3e	; 62

000002f8 <.Loc.50>:
    TCCR0A = (1 << WGM01);                       // CTC mode
     2f8:	84 e4       	ldi	r24, 0x44	; 68
     2fa:	90 e0       	ldi	r25, 0x00	; 0

000002fc <.Loc.51>:
     2fc:	22 e0       	ldi	r18, 0x02	; 2
     2fe:	fc 01       	movw	r30, r24
     300:	20 83       	st	Z, r18

00000302 <.Loc.52>:
    TCCR0B = (1 << CS01) | (1 << CS00); // prescaler 64
     302:	85 e4       	ldi	r24, 0x45	; 69
     304:	90 e0       	ldi	r25, 0x00	; 0

00000306 <.Loc.53>:
     306:	23 e0       	ldi	r18, 0x03	; 3
     308:	fc 01       	movw	r30, r24
     30a:	20 83       	st	Z, r18

0000030c <.Loc.54>:
    OCR0A = 249;                                               // 1 ms / 16 MHz
     30c:	87 e4       	ldi	r24, 0x47	; 71
     30e:	90 e0       	ldi	r25, 0x00	; 0

00000310 <.Loc.55>:
     310:	29 ef       	ldi	r18, 0xF9	; 249
     312:	fc 01       	movw	r30, r24
     314:	20 83       	st	Z, r18

00000316 <.Loc.56>:
    TIMSK0 |= (1 << OCIE0A);                       // compare interrupt
     316:	8e e6       	ldi	r24, 0x6E	; 110
     318:	90 e0       	ldi	r25, 0x00	; 0
     31a:	fc 01       	movw	r30, r24
     31c:	20 81       	ld	r18, Z
     31e:	8e e6       	ldi	r24, 0x6E	; 110
     320:	90 e0       	ldi	r25, 0x00	; 0

00000322 <.Loc.57>:
     322:	22 60       	ori	r18, 0x02	; 2
     324:	fc 01       	movw	r30, r24
     326:	20 83       	st	Z, r18

00000328 <.Loc.58>:

}
     328:	00 00       	nop
     32a:	df 91       	pop	r29
     32c:	cf 91       	pop	r28
     32e:	08 95       	ret

00000330 <interruptconfig>:

void interruptconfig(void)
{
     330:	cf 93       	push	r28
     332:	df 93       	push	r29
     334:	cd b7       	in	r28, 0x3d	; 61
     336:	de b7       	in	r29, 0x3e	; 62

00000338 <.Loc.60>:

    PCMSK0 |= (1 << PCINT4) | (1 << PCINT3) | (1 << PCINT2) | (1 << PCINT1) | (1 << PCINT0);
     338:	8b e6       	ldi	r24, 0x6B	; 107
     33a:	90 e0       	ldi	r25, 0x00	; 0
     33c:	fc 01       	movw	r30, r24
     33e:	20 81       	ld	r18, Z
     340:	8b e6       	ldi	r24, 0x6B	; 107
     342:	90 e0       	ldi	r25, 0x00	; 0

00000344 <.Loc.61>:
     344:	2f 61       	ori	r18, 0x1F	; 31
     346:	fc 01       	movw	r30, r24
     348:	20 83       	st	Z, r18

0000034a <.Loc.62>:
    PCICR |= (1 << PCIE0);
     34a:	88 e6       	ldi	r24, 0x68	; 104
     34c:	90 e0       	ldi	r25, 0x00	; 0
     34e:	fc 01       	movw	r30, r24
     350:	20 81       	ld	r18, Z
     352:	88 e6       	ldi	r24, 0x68	; 104
     354:	90 e0       	ldi	r25, 0x00	; 0

00000356 <.Loc.63>:
     356:	21 60       	ori	r18, 0x01	; 1
     358:	fc 01       	movw	r30, r24
     35a:	20 83       	st	Z, r18

0000035c <.Loc.64>:
    PCIFR |= (1 << PCIF0);
     35c:	8b e3       	ldi	r24, 0x3B	; 59
     35e:	90 e0       	ldi	r25, 0x00	; 0
     360:	fc 01       	movw	r30, r24
     362:	20 81       	ld	r18, Z
     364:	8b e3       	ldi	r24, 0x3B	; 59
     366:	90 e0       	ldi	r25, 0x00	; 0

00000368 <.Loc.65>:
     368:	21 60       	ori	r18, 0x01	; 1
     36a:	fc 01       	movw	r30, r24
     36c:	20 83       	st	Z, r18

0000036e <.Loc.66>:
    sei();
     36e:	78 94       	sei

00000370 <.Loc.67>:


}
     370:	00 00       	nop
     372:	df 91       	pop	r29
     374:	cf 91       	pop	r28
     376:	08 95       	ret

00000378 <zknoppenconfig>:

void zknoppenconfig(void)
{
     378:	cf 93       	push	r28
     37a:	df 93       	push	r29
     37c:	cd b7       	in	r28, 0x3d	; 61
     37e:	de b7       	in	r29, 0x3e	; 62

00000380 <.Loc.69>:
    DDR_KNOP_Z1 &= ~(1 << KNOP_Z1);
     380:	87 e2       	ldi	r24, 0x27	; 39
     382:	90 e0       	ldi	r25, 0x00	; 0
     384:	fc 01       	movw	r30, r24
     386:	20 81       	ld	r18, Z

00000388 <.Loc.70>:
     388:	87 e2       	ldi	r24, 0x27	; 39
     38a:	90 e0       	ldi	r25, 0x00	; 0

0000038c <.Loc.71>:
     38c:	2e 7f       	andi	r18, 0xFE	; 254
     38e:	fc 01       	movw	r30, r24
     390:	20 83       	st	Z, r18

00000392 <.Loc.72>:
    DDR_KNOP_Z0 &= ~(1 << KNOP_Z0);
     392:	87 e2       	ldi	r24, 0x27	; 39
     394:	90 e0       	ldi	r25, 0x00	; 0
     396:	fc 01       	movw	r30, r24
     398:	20 81       	ld	r18, Z

0000039a <.Loc.73>:
     39a:	87 e2       	ldi	r24, 0x27	; 39
     39c:	90 e0       	ldi	r25, 0x00	; 0

0000039e <.Loc.74>:
     39e:	2d 7f       	andi	r18, 0xFD	; 253
     3a0:	fc 01       	movw	r30, r24
     3a2:	20 83       	st	Z, r18

000003a4 <.Loc.75>:

    PORT_KNOP_Z1 |= (1 << KNOP_Z1);
     3a4:	88 e2       	ldi	r24, 0x28	; 40
     3a6:	90 e0       	ldi	r25, 0x00	; 0
     3a8:	fc 01       	movw	r30, r24
     3aa:	20 81       	ld	r18, Z
     3ac:	88 e2       	ldi	r24, 0x28	; 40
     3ae:	90 e0       	ldi	r25, 0x00	; 0

000003b0 <.Loc.76>:
     3b0:	21 60       	ori	r18, 0x01	; 1
     3b2:	fc 01       	movw	r30, r24
     3b4:	20 83       	st	Z, r18

000003b6 <.Loc.77>:
    PORT_KNOP_Z0 |= (1 << KNOP_Z0);
     3b6:	88 e2       	ldi	r24, 0x28	; 40
     3b8:	90 e0       	ldi	r25, 0x00	; 0
     3ba:	fc 01       	movw	r30, r24
     3bc:	20 81       	ld	r18, Z
     3be:	88 e2       	ldi	r24, 0x28	; 40
     3c0:	90 e0       	ldi	r25, 0x00	; 0

000003c2 <.Loc.78>:
     3c2:	22 60       	ori	r18, 0x02	; 2
     3c4:	fc 01       	movw	r30, r24
     3c6:	20 83       	st	Z, r18

000003c8 <.Loc.79>:
}
     3c8:	00 00       	nop
     3ca:	df 91       	pop	r29
     3cc:	cf 91       	pop	r28
     3ce:	08 95       	ret

000003d0 <yknoppenconfig>:




void yknoppenconfig(void)
{
     3d0:	cf 93       	push	r28
     3d2:	df 93       	push	r29
     3d4:	cd b7       	in	r28, 0x3d	; 61
     3d6:	de b7       	in	r29, 0x3e	; 62

000003d8 <.Loc.81>:
    DDR_KNOP_Y1 &= ~(1 << KNOP_Y1); // knoppen Y as input
     3d8:	84 e2       	ldi	r24, 0x24	; 36
     3da:	90 e0       	ldi	r25, 0x00	; 0
     3dc:	fc 01       	movw	r30, r24
     3de:	20 81       	ld	r18, Z

000003e0 <.Loc.82>:
     3e0:	84 e2       	ldi	r24, 0x24	; 36
     3e2:	90 e0       	ldi	r25, 0x00	; 0

000003e4 <.Loc.83>:
     3e4:	2e 7f       	andi	r18, 0xFE	; 254
     3e6:	fc 01       	movw	r30, r24
     3e8:	20 83       	st	Z, r18

000003ea <.Loc.84>:
    DDR_KNOP_Y2 &= ~(1 << KNOP_Y2);
     3ea:	84 e2       	ldi	r24, 0x24	; 36
     3ec:	90 e0       	ldi	r25, 0x00	; 0
     3ee:	fc 01       	movw	r30, r24
     3f0:	20 81       	ld	r18, Z

000003f2 <.Loc.85>:
     3f2:	84 e2       	ldi	r24, 0x24	; 36
     3f4:	90 e0       	ldi	r25, 0x00	; 0

000003f6 <.Loc.86>:
     3f6:	2d 7f       	andi	r18, 0xFD	; 253
     3f8:	fc 01       	movw	r30, r24
     3fa:	20 83       	st	Z, r18

000003fc <.Loc.87>:
    DDR_KNOP_Y3 &= ~(1 << KNOP_Y3);
     3fc:	84 e2       	ldi	r24, 0x24	; 36
     3fe:	90 e0       	ldi	r25, 0x00	; 0
     400:	fc 01       	movw	r30, r24
     402:	20 81       	ld	r18, Z

00000404 <.Loc.88>:
     404:	84 e2       	ldi	r24, 0x24	; 36
     406:	90 e0       	ldi	r25, 0x00	; 0

00000408 <.Loc.89>:
     408:	2b 7f       	andi	r18, 0xFB	; 251
     40a:	fc 01       	movw	r30, r24
     40c:	20 83       	st	Z, r18

0000040e <.Loc.90>:
    DDR_KNOP_Y4 &= ~(1 << KNOP_Y4);
     40e:	84 e2       	ldi	r24, 0x24	; 36
     410:	90 e0       	ldi	r25, 0x00	; 0
     412:	fc 01       	movw	r30, r24
     414:	20 81       	ld	r18, Z

00000416 <.Loc.91>:
     416:	84 e2       	ldi	r24, 0x24	; 36
     418:	90 e0       	ldi	r25, 0x00	; 0

0000041a <.Loc.92>:
     41a:	27 7f       	andi	r18, 0xF7	; 247
     41c:	fc 01       	movw	r30, r24
     41e:	20 83       	st	Z, r18

00000420 <.Loc.93>:
    DDR_KNOP_Y5 &= ~(1 << KNOP_Y5);
     420:	84 e2       	ldi	r24, 0x24	; 36
     422:	90 e0       	ldi	r25, 0x00	; 0
     424:	fc 01       	movw	r30, r24
     426:	20 81       	ld	r18, Z

00000428 <.Loc.94>:
     428:	84 e2       	ldi	r24, 0x24	; 36
     42a:	90 e0       	ldi	r25, 0x00	; 0

0000042c <.Loc.95>:
     42c:	2f 7e       	andi	r18, 0xEF	; 239
     42e:	fc 01       	movw	r30, r24
     430:	20 83       	st	Z, r18

00000432 <.Loc.96>:

    PORT_KNOP_Y1 |= (1 << KNOP_Y1); // knoppen Y as pullup
     432:	85 e2       	ldi	r24, 0x25	; 37
     434:	90 e0       	ldi	r25, 0x00	; 0
     436:	fc 01       	movw	r30, r24
     438:	20 81       	ld	r18, Z
     43a:	85 e2       	ldi	r24, 0x25	; 37
     43c:	90 e0       	ldi	r25, 0x00	; 0

0000043e <.Loc.97>:
     43e:	21 60       	ori	r18, 0x01	; 1
     440:	fc 01       	movw	r30, r24
     442:	20 83       	st	Z, r18

00000444 <.Loc.98>:
    PORT_KNOP_Y2 |= (1 << KNOP_Y2);
     444:	85 e2       	ldi	r24, 0x25	; 37
     446:	90 e0       	ldi	r25, 0x00	; 0
     448:	fc 01       	movw	r30, r24
     44a:	20 81       	ld	r18, Z
     44c:	85 e2       	ldi	r24, 0x25	; 37
     44e:	90 e0       	ldi	r25, 0x00	; 0

00000450 <.Loc.99>:
     450:	22 60       	ori	r18, 0x02	; 2
     452:	fc 01       	movw	r30, r24
     454:	20 83       	st	Z, r18

00000456 <.Loc.100>:
    PORT_KNOP_Y3 |= (1 << KNOP_Y3);
     456:	85 e2       	ldi	r24, 0x25	; 37
     458:	90 e0       	ldi	r25, 0x00	; 0
     45a:	fc 01       	movw	r30, r24
     45c:	20 81       	ld	r18, Z
     45e:	85 e2       	ldi	r24, 0x25	; 37
     460:	90 e0       	ldi	r25, 0x00	; 0

00000462 <.Loc.101>:
     462:	24 60       	ori	r18, 0x04	; 4
     464:	fc 01       	movw	r30, r24
     466:	20 83       	st	Z, r18

00000468 <.Loc.102>:
    PORT_KNOP_Y4 |= (1 << KNOP_Y4);
     468:	85 e2       	ldi	r24, 0x25	; 37
     46a:	90 e0       	ldi	r25, 0x00	; 0
     46c:	fc 01       	movw	r30, r24
     46e:	20 81       	ld	r18, Z
     470:	85 e2       	ldi	r24, 0x25	; 37
     472:	90 e0       	ldi	r25, 0x00	; 0

00000474 <.Loc.103>:
     474:	28 60       	ori	r18, 0x08	; 8
     476:	fc 01       	movw	r30, r24
     478:	20 83       	st	Z, r18

0000047a <.Loc.104>:
    PORT_KNOP_Y5 |= (1 << KNOP_Y5);
     47a:	85 e2       	ldi	r24, 0x25	; 37
     47c:	90 e0       	ldi	r25, 0x00	; 0
     47e:	fc 01       	movw	r30, r24
     480:	20 81       	ld	r18, Z
     482:	85 e2       	ldi	r24, 0x25	; 37
     484:	90 e0       	ldi	r25, 0x00	; 0

00000486 <.Loc.105>:
     486:	20 61       	ori	r18, 0x10	; 16
     488:	fc 01       	movw	r30, r24
     48a:	20 83       	st	Z, r18

0000048c <.Loc.106>:
}
     48c:	00 00       	nop
     48e:	df 91       	pop	r29
     490:	cf 91       	pop	r28
     492:	08 95       	ret

00000494 <zmotorconfig>:

void zmotorconfig(void)
{
     494:	cf 93       	push	r28
     496:	df 93       	push	r29
     498:	cd b7       	in	r28, 0x3d	; 61
     49a:	de b7       	in	r29, 0x3e	; 62

0000049c <.Loc.108>:
    //  H-brug PORTS als OUTPUT instellen
    DDR_R_EN_Z |= (1 << R_EN_Z);
     49c:	81 e2       	ldi	r24, 0x21	; 33
     49e:	90 e0       	ldi	r25, 0x00	; 0
     4a0:	fc 01       	movw	r30, r24
     4a2:	20 81       	ld	r18, Z
     4a4:	81 e2       	ldi	r24, 0x21	; 33
     4a6:	90 e0       	ldi	r25, 0x00	; 0

000004a8 <.Loc.109>:
     4a8:	24 60       	ori	r18, 0x04	; 4
     4aa:	fc 01       	movw	r30, r24
     4ac:	20 83       	st	Z, r18

000004ae <.Loc.110>:
    DDR_L_EN_Z |= (1 << L_EN_Z);
     4ae:	81 e2       	ldi	r24, 0x21	; 33
     4b0:	90 e0       	ldi	r25, 0x00	; 0
     4b2:	fc 01       	movw	r30, r24
     4b4:	20 81       	ld	r18, Z
     4b6:	81 e2       	ldi	r24, 0x21	; 33
     4b8:	90 e0       	ldi	r25, 0x00	; 0

000004ba <.Loc.111>:
     4ba:	28 60       	ori	r18, 0x08	; 8
     4bc:	fc 01       	movw	r30, r24
     4be:	20 83       	st	Z, r18

000004c0 <.Loc.112>:
    DDR_R_PWM_Z |= (1 << R_PWM_Z);
     4c0:	8d e2       	ldi	r24, 0x2D	; 45
     4c2:	90 e0       	ldi	r25, 0x00	; 0
     4c4:	fc 01       	movw	r30, r24
     4c6:	20 81       	ld	r18, Z
     4c8:	8d e2       	ldi	r24, 0x2D	; 45
     4ca:	90 e0       	ldi	r25, 0x00	; 0

000004cc <.Loc.113>:
     4cc:	28 60       	ori	r18, 0x08	; 8
     4ce:	fc 01       	movw	r30, r24
     4d0:	20 83       	st	Z, r18

000004d2 <.Loc.114>:
    DDR_L_PWM_Z |= (1 << L_PWM_Z);
     4d2:	83 e3       	ldi	r24, 0x33	; 51
     4d4:	90 e0       	ldi	r25, 0x00	; 0
     4d6:	fc 01       	movw	r30, r24
     4d8:	20 81       	ld	r18, Z
     4da:	83 e3       	ldi	r24, 0x33	; 51
     4dc:	90 e0       	ldi	r25, 0x00	; 0

000004de <.Loc.115>:
     4de:	20 62       	ori	r18, 0x20	; 32
     4e0:	fc 01       	movw	r30, r24
     4e2:	20 83       	st	Z, r18

000004e4 <.Loc.116>:

    // Alles uit bij start
    PORT_R_EN_Z &= ~(1 << R_EN_Z);
     4e4:	82 e2       	ldi	r24, 0x22	; 34
     4e6:	90 e0       	ldi	r25, 0x00	; 0
     4e8:	fc 01       	movw	r30, r24
     4ea:	20 81       	ld	r18, Z

000004ec <.Loc.117>:
     4ec:	82 e2       	ldi	r24, 0x22	; 34
     4ee:	90 e0       	ldi	r25, 0x00	; 0

000004f0 <.Loc.118>:
     4f0:	2b 7f       	andi	r18, 0xFB	; 251
     4f2:	fc 01       	movw	r30, r24
     4f4:	20 83       	st	Z, r18

000004f6 <.Loc.119>:
    PORT_L_EN_Z &= ~(1 << L_EN_Z);
     4f6:	82 e2       	ldi	r24, 0x22	; 34
     4f8:	90 e0       	ldi	r25, 0x00	; 0
     4fa:	fc 01       	movw	r30, r24
     4fc:	20 81       	ld	r18, Z

000004fe <.Loc.120>:
     4fe:	82 e2       	ldi	r24, 0x22	; 34
     500:	90 e0       	ldi	r25, 0x00	; 0

00000502 <.Loc.121>:
     502:	27 7f       	andi	r18, 0xF7	; 247
     504:	fc 01       	movw	r30, r24
     506:	20 83       	st	Z, r18

00000508 <.Loc.122>:
    PORT_R_PWM_Z &= ~(1 << R_PWM_Z);
     508:	8e e2       	ldi	r24, 0x2E	; 46
     50a:	90 e0       	ldi	r25, 0x00	; 0
     50c:	fc 01       	movw	r30, r24
     50e:	20 81       	ld	r18, Z

00000510 <.Loc.123>:
     510:	8e e2       	ldi	r24, 0x2E	; 46
     512:	90 e0       	ldi	r25, 0x00	; 0

00000514 <.Loc.124>:
     514:	27 7f       	andi	r18, 0xF7	; 247
     516:	fc 01       	movw	r30, r24
     518:	20 83       	st	Z, r18

0000051a <.Loc.125>:
    PORT_L_PWM_Z &= ~(1 << L_PWM_Z);
     51a:	84 e3       	ldi	r24, 0x34	; 52
     51c:	90 e0       	ldi	r25, 0x00	; 0
     51e:	fc 01       	movw	r30, r24
     520:	20 81       	ld	r18, Z

00000522 <.Loc.126>:
     522:	84 e3       	ldi	r24, 0x34	; 52
     524:	90 e0       	ldi	r25, 0x00	; 0

00000526 <.Loc.127>:
     526:	2f 7d       	andi	r18, 0xDF	; 223
     528:	fc 01       	movw	r30, r24
     52a:	20 83       	st	Z, r18

0000052c <.Loc.128>:
}
     52c:	00 00       	nop
     52e:	df 91       	pop	r29
     530:	cf 91       	pop	r28
     532:	08 95       	ret

00000534 <ymotorconfig>:

void ymotorconfig(void)
{
     534:	cf 93       	push	r28
     536:	df 93       	push	r29
     538:	cd b7       	in	r28, 0x3d	; 61
     53a:	de b7       	in	r29, 0x3e	; 62

0000053c <.Loc.130>:
    // H-brug PORTS als OUTPUT instellen
    DDR_R_EN_Y |= (1 << R_EN_Y);
     53c:	81 e2       	ldi	r24, 0x21	; 33
     53e:	90 e0       	ldi	r25, 0x00	; 0
     540:	fc 01       	movw	r30, r24
     542:	20 81       	ld	r18, Z
     544:	81 e2       	ldi	r24, 0x21	; 33
     546:	90 e0       	ldi	r25, 0x00	; 0

00000548 <.Loc.131>:
     548:	21 60       	ori	r18, 0x01	; 1
     54a:	fc 01       	movw	r30, r24
     54c:	20 83       	st	Z, r18

0000054e <.Loc.132>:
    DDR_L_EN_Y |= (1 << L_EN_Y);
     54e:	81 e2       	ldi	r24, 0x21	; 33
     550:	90 e0       	ldi	r25, 0x00	; 0
     552:	fc 01       	movw	r30, r24
     554:	20 81       	ld	r18, Z
     556:	81 e2       	ldi	r24, 0x21	; 33
     558:	90 e0       	ldi	r25, 0x00	; 0

0000055a <.Loc.133>:
     55a:	22 60       	ori	r18, 0x02	; 2
     55c:	fc 01       	movw	r30, r24
     55e:	20 83       	st	Z, r18

00000560 <.Loc.134>:
    DDR_R_PWM_Y |= (1 << R_PWM_Y);
     560:	8d e2       	ldi	r24, 0x2D	; 45
     562:	90 e0       	ldi	r25, 0x00	; 0
     564:	fc 01       	movw	r30, r24
     566:	20 81       	ld	r18, Z
     568:	8d e2       	ldi	r24, 0x2D	; 45
     56a:	90 e0       	ldi	r25, 0x00	; 0

0000056c <.Loc.135>:
     56c:	20 61       	ori	r18, 0x10	; 16
     56e:	fc 01       	movw	r30, r24
     570:	20 83       	st	Z, r18

00000572 <.Loc.136>:
    DDR_L_PWM_Y |= (1 << L_PWM_Y);
     572:	8d e2       	ldi	r24, 0x2D	; 45
     574:	90 e0       	ldi	r25, 0x00	; 0
     576:	fc 01       	movw	r30, r24
     578:	20 81       	ld	r18, Z
     57a:	8d e2       	ldi	r24, 0x2D	; 45
     57c:	90 e0       	ldi	r25, 0x00	; 0

0000057e <.Loc.137>:
     57e:	20 62       	ori	r18, 0x20	; 32
     580:	fc 01       	movw	r30, r24
     582:	20 83       	st	Z, r18

00000584 <.Loc.138>:

    //  Alles uit bij start
    PORT_R_EN_Y &= ~(1 << R_EN_Y);
     584:	82 e2       	ldi	r24, 0x22	; 34
     586:	90 e0       	ldi	r25, 0x00	; 0
     588:	fc 01       	movw	r30, r24
     58a:	20 81       	ld	r18, Z

0000058c <.Loc.139>:
     58c:	82 e2       	ldi	r24, 0x22	; 34
     58e:	90 e0       	ldi	r25, 0x00	; 0

00000590 <.Loc.140>:
     590:	2e 7f       	andi	r18, 0xFE	; 254
     592:	fc 01       	movw	r30, r24
     594:	20 83       	st	Z, r18

00000596 <.Loc.141>:
    PORT_L_EN_Y &= ~(1 << L_EN_Y);
     596:	82 e2       	ldi	r24, 0x22	; 34
     598:	90 e0       	ldi	r25, 0x00	; 0
     59a:	fc 01       	movw	r30, r24
     59c:	20 81       	ld	r18, Z

0000059e <.Loc.142>:
     59e:	82 e2       	ldi	r24, 0x22	; 34
     5a0:	90 e0       	ldi	r25, 0x00	; 0

000005a2 <.Loc.143>:
     5a2:	2d 7f       	andi	r18, 0xFD	; 253
     5a4:	fc 01       	movw	r30, r24
     5a6:	20 83       	st	Z, r18

000005a8 <.Loc.144>:
    PORT_R_PWM_Y &= ~(1 << R_PWM_Y);
     5a8:	8e e2       	ldi	r24, 0x2E	; 46
     5aa:	90 e0       	ldi	r25, 0x00	; 0
     5ac:	fc 01       	movw	r30, r24
     5ae:	20 81       	ld	r18, Z

000005b0 <.Loc.145>:
     5b0:	8e e2       	ldi	r24, 0x2E	; 46
     5b2:	90 e0       	ldi	r25, 0x00	; 0

000005b4 <.Loc.146>:
     5b4:	2f 7e       	andi	r18, 0xEF	; 239
     5b6:	fc 01       	movw	r30, r24
     5b8:	20 83       	st	Z, r18

000005ba <.Loc.147>:
    PORT_L_PWM_Y &= ~(1 << L_PWM_Y);
     5ba:	8e e2       	ldi	r24, 0x2E	; 46
     5bc:	90 e0       	ldi	r25, 0x00	; 0
     5be:	fc 01       	movw	r30, r24
     5c0:	20 81       	ld	r18, Z

000005c2 <.Loc.148>:
     5c2:	8e e2       	ldi	r24, 0x2E	; 46
     5c4:	90 e0       	ldi	r25, 0x00	; 0

000005c6 <.Loc.149>:
     5c6:	2f 7d       	andi	r18, 0xDF	; 223
     5c8:	fc 01       	movw	r30, r24
     5ca:	20 83       	st	Z, r18

000005cc <.Loc.150>:
}
     5cc:	00 00       	nop
     5ce:	df 91       	pop	r29
     5d0:	cf 91       	pop	r28
     5d2:	08 95       	ret

000005d4 <magneetconfig>:

void magneetconfig(void)
{
     5d4:	cf 93       	push	r28
     5d6:	df 93       	push	r29
     5d8:	cd b7       	in	r28, 0x3d	; 61
     5da:	de b7       	in	r29, 0x3e	; 62

000005dc <.Loc.152>:
    DDR_MAGNEET |= (1 << MAGNEET);     // magneet als output
     5dc:	87 e0       	ldi	r24, 0x07	; 7
     5de:	91 e0       	ldi	r25, 0x01	; 1
     5e0:	fc 01       	movw	r30, r24
     5e2:	20 81       	ld	r18, Z
     5e4:	87 e0       	ldi	r24, 0x07	; 7
     5e6:	91 e0       	ldi	r25, 0x01	; 1

000005e8 <.Loc.153>:
     5e8:	20 64       	ori	r18, 0x40	; 64
     5ea:	fc 01       	movw	r30, r24
     5ec:	20 83       	st	Z, r18

000005ee <.Loc.154>:
    PORT_MAGNEET &= ~(1 << MAGNEET);  // magneet uit bij start
     5ee:	88 e0       	ldi	r24, 0x08	; 8
     5f0:	91 e0       	ldi	r25, 0x01	; 1
     5f2:	fc 01       	movw	r30, r24
     5f4:	20 81       	ld	r18, Z

000005f6 <.Loc.155>:
     5f6:	88 e0       	ldi	r24, 0x08	; 8
     5f8:	91 e0       	ldi	r25, 0x01	; 1

000005fa <.Loc.156>:
     5fa:	2f 7b       	andi	r18, 0xBF	; 191
     5fc:	fc 01       	movw	r30, r24
     5fe:	20 83       	st	Z, r18

00000600 <.Loc.157>:
}
     600:	00 00       	nop
     602:	df 91       	pop	r29
     604:	cf 91       	pop	r28
     606:	08 95       	ret

00000608 <magneetaan>:
void magneetaan(void)
{
     608:	cf 93       	push	r28
     60a:	df 93       	push	r29
     60c:	cd b7       	in	r28, 0x3d	; 61
     60e:	de b7       	in	r29, 0x3e	; 62

00000610 <.Loc.159>:
    PORT_MAGNEET |= (1 << MAGNEET); // magneet aan
     610:	88 e0       	ldi	r24, 0x08	; 8
     612:	91 e0       	ldi	r25, 0x01	; 1
     614:	fc 01       	movw	r30, r24
     616:	20 81       	ld	r18, Z
     618:	88 e0       	ldi	r24, 0x08	; 8
     61a:	91 e0       	ldi	r25, 0x01	; 1

0000061c <.Loc.160>:
     61c:	20 64       	ori	r18, 0x40	; 64
     61e:	fc 01       	movw	r30, r24
     620:	20 83       	st	Z, r18

00000622 <.Loc.161>:
}
     622:	00 00       	nop
     624:	df 91       	pop	r29
     626:	cf 91       	pop	r28
     628:	08 95       	ret

0000062a <magneetuit>:

void magneetuit(void)
{
     62a:	cf 93       	push	r28
     62c:	df 93       	push	r29
     62e:	cd b7       	in	r28, 0x3d	; 61
     630:	de b7       	in	r29, 0x3e	; 62

00000632 <.Loc.163>:
    PORT_MAGNEET &= ~(1 << MAGNEET); // magneet uit
     632:	88 e0       	ldi	r24, 0x08	; 8
     634:	91 e0       	ldi	r25, 0x01	; 1
     636:	fc 01       	movw	r30, r24
     638:	20 81       	ld	r18, Z

0000063a <.Loc.164>:
     63a:	88 e0       	ldi	r24, 0x08	; 8
     63c:	91 e0       	ldi	r25, 0x01	; 1

0000063e <.Loc.165>:
     63e:	2f 7b       	andi	r18, 0xBF	; 191
     640:	fc 01       	movw	r30, r24
     642:	20 83       	st	Z, r18

00000644 <.Loc.166>:
}
     644:	00 00       	nop
     646:	df 91       	pop	r29
     648:	cf 91       	pop	r28
     64a:	08 95       	ret

0000064c <ymotorpositief>:

void ymotorpositief(void)
{
     64c:	cf 93       	push	r28
     64e:	df 93       	push	r29
     650:	cd b7       	in	r28, 0x3d	; 61
     652:	de b7       	in	r29, 0x3e	; 62

00000654 <.Loc.168>:
    // MOTOR AAN (positief)
        PORT_R_EN_Y |= (1 << R_EN_Y);                 // R_EN = 1
     654:	82 e2       	ldi	r24, 0x22	; 34
     656:	90 e0       	ldi	r25, 0x00	; 0
     658:	fc 01       	movw	r30, r24
     65a:	20 81       	ld	r18, Z
     65c:	82 e2       	ldi	r24, 0x22	; 34
     65e:	90 e0       	ldi	r25, 0x00	; 0

00000660 <.Loc.169>:
     660:	21 60       	ori	r18, 0x01	; 1
     662:	fc 01       	movw	r30, r24
     664:	20 83       	st	Z, r18

00000666 <.Loc.170>:
        PORT_L_EN_Y |= (1 << L_EN_Y);                 // L_EN = 1
     666:	82 e2       	ldi	r24, 0x22	; 34
     668:	90 e0       	ldi	r25, 0x00	; 0
     66a:	fc 01       	movw	r30, r24
     66c:	20 81       	ld	r18, Z
     66e:	82 e2       	ldi	r24, 0x22	; 34
     670:	90 e0       	ldi	r25, 0x00	; 0

00000672 <.Loc.171>:
     672:	22 60       	ori	r18, 0x02	; 2
     674:	fc 01       	movw	r30, r24
     676:	20 83       	st	Z, r18

00000678 <.Loc.172>:
        PORT_R_PWM_Y |= (1 << R_PWM_Y);      // R_PWM = 1
     678:	8e e2       	ldi	r24, 0x2E	; 46
     67a:	90 e0       	ldi	r25, 0x00	; 0
     67c:	fc 01       	movw	r30, r24
     67e:	20 81       	ld	r18, Z
     680:	8e e2       	ldi	r24, 0x2E	; 46
     682:	90 e0       	ldi	r25, 0x00	; 0

00000684 <.Loc.173>:
     684:	20 61       	ori	r18, 0x10	; 16
     686:	fc 01       	movw	r30, r24
     688:	20 83       	st	Z, r18

0000068a <.Loc.174>:
        PORT_L_PWM_Y &= ~(1 << L_PWM_Y);  // L_PWM = 0
     68a:	8e e2       	ldi	r24, 0x2E	; 46
     68c:	90 e0       	ldi	r25, 0x00	; 0
     68e:	fc 01       	movw	r30, r24
     690:	20 81       	ld	r18, Z

00000692 <.Loc.175>:
     692:	8e e2       	ldi	r24, 0x2E	; 46
     694:	90 e0       	ldi	r25, 0x00	; 0

00000696 <.Loc.176>:
     696:	2f 7d       	andi	r18, 0xDF	; 223
     698:	fc 01       	movw	r30, r24
     69a:	20 83       	st	Z, r18

0000069c <.Loc.177>:
}
     69c:	00 00       	nop
     69e:	df 91       	pop	r29
     6a0:	cf 91       	pop	r28
     6a2:	08 95       	ret

000006a4 <ymotoruit>:

void ymotoruit(void)
{
     6a4:	cf 93       	push	r28
     6a6:	df 93       	push	r29
     6a8:	cd b7       	in	r28, 0x3d	; 61
     6aa:	de b7       	in	r29, 0x3e	; 62

000006ac <.Loc.179>:
      // MOTOR UIT
        PORT_R_EN_Y &= ~(1 << R_EN_Y);                // R_EN = 0
     6ac:	82 e2       	ldi	r24, 0x22	; 34
     6ae:	90 e0       	ldi	r25, 0x00	; 0
     6b0:	fc 01       	movw	r30, r24
     6b2:	20 81       	ld	r18, Z

000006b4 <.Loc.180>:
     6b4:	82 e2       	ldi	r24, 0x22	; 34
     6b6:	90 e0       	ldi	r25, 0x00	; 0

000006b8 <.Loc.181>:
     6b8:	2e 7f       	andi	r18, 0xFE	; 254
     6ba:	fc 01       	movw	r30, r24
     6bc:	20 83       	st	Z, r18

000006be <.Loc.182>:
        PORT_L_EN_Y &= ~(1 << L_EN_Y);                 // L_EN = 0
     6be:	82 e2       	ldi	r24, 0x22	; 34
     6c0:	90 e0       	ldi	r25, 0x00	; 0
     6c2:	fc 01       	movw	r30, r24
     6c4:	20 81       	ld	r18, Z

000006c6 <.Loc.183>:
     6c6:	82 e2       	ldi	r24, 0x22	; 34
     6c8:	90 e0       	ldi	r25, 0x00	; 0

000006ca <.Loc.184>:
     6ca:	2d 7f       	andi	r18, 0xFD	; 253
     6cc:	fc 01       	movw	r30, r24
     6ce:	20 83       	st	Z, r18

000006d0 <.Loc.185>:
        PORT_R_PWM_Y &= ~(1 << R_PWM_Y);     // R_PWM = 0
     6d0:	8e e2       	ldi	r24, 0x2E	; 46
     6d2:	90 e0       	ldi	r25, 0x00	; 0
     6d4:	fc 01       	movw	r30, r24
     6d6:	20 81       	ld	r18, Z

000006d8 <.Loc.186>:
     6d8:	8e e2       	ldi	r24, 0x2E	; 46
     6da:	90 e0       	ldi	r25, 0x00	; 0

000006dc <.Loc.187>:
     6dc:	2f 7e       	andi	r18, 0xEF	; 239
     6de:	fc 01       	movw	r30, r24
     6e0:	20 83       	st	Z, r18

000006e2 <.Loc.188>:
        PORT_L_PWM_Y &= ~(1 << L_PWM_Y);      // L_PWM = 0
     6e2:	8e e2       	ldi	r24, 0x2E	; 46
     6e4:	90 e0       	ldi	r25, 0x00	; 0
     6e6:	fc 01       	movw	r30, r24
     6e8:	20 81       	ld	r18, Z

000006ea <.Loc.189>:
     6ea:	8e e2       	ldi	r24, 0x2E	; 46
     6ec:	90 e0       	ldi	r25, 0x00	; 0

000006ee <.Loc.190>:
     6ee:	2f 7d       	andi	r18, 0xDF	; 223
     6f0:	fc 01       	movw	r30, r24
     6f2:	20 83       	st	Z, r18

000006f4 <.Loc.191>:
}
     6f4:	00 00       	nop
     6f6:	df 91       	pop	r29
     6f8:	cf 91       	pop	r28
     6fa:	08 95       	ret

000006fc <ymotornegatief>:
void ymotornegatief(void)
{
     6fc:	cf 93       	push	r28
     6fe:	df 93       	push	r29
     700:	cd b7       	in	r28, 0x3d	; 61
     702:	de b7       	in	r29, 0x3e	; 62

00000704 <.Loc.193>:
    // MOTOR AAN (negatief)
        PORT_R_EN_Y |= (1 << R_EN_Y);                   // R_EN = 1
     704:	82 e2       	ldi	r24, 0x22	; 34
     706:	90 e0       	ldi	r25, 0x00	; 0
     708:	fc 01       	movw	r30, r24
     70a:	20 81       	ld	r18, Z
     70c:	82 e2       	ldi	r24, 0x22	; 34
     70e:	90 e0       	ldi	r25, 0x00	; 0

00000710 <.Loc.194>:
     710:	21 60       	ori	r18, 0x01	; 1
     712:	fc 01       	movw	r30, r24
     714:	20 83       	st	Z, r18

00000716 <.Loc.195>:
        PORT_L_EN_Y |= (1 << L_EN_Y);                   // L_EN = 1
     716:	82 e2       	ldi	r24, 0x22	; 34
     718:	90 e0       	ldi	r25, 0x00	; 0
     71a:	fc 01       	movw	r30, r24
     71c:	20 81       	ld	r18, Z
     71e:	82 e2       	ldi	r24, 0x22	; 34
     720:	90 e0       	ldi	r25, 0x00	; 0

00000722 <.Loc.196>:
     722:	22 60       	ori	r18, 0x02	; 2
     724:	fc 01       	movw	r30, r24
     726:	20 83       	st	Z, r18

00000728 <.Loc.197>:
        PORT_R_PWM_Y &= ~(1 << R_PWM_Y);   // R_PWM = 1
     728:	8e e2       	ldi	r24, 0x2E	; 46
     72a:	90 e0       	ldi	r25, 0x00	; 0
     72c:	fc 01       	movw	r30, r24
     72e:	20 81       	ld	r18, Z

00000730 <.Loc.198>:
     730:	8e e2       	ldi	r24, 0x2E	; 46
     732:	90 e0       	ldi	r25, 0x00	; 0

00000734 <.Loc.199>:
     734:	2f 7e       	andi	r18, 0xEF	; 239
     736:	fc 01       	movw	r30, r24
     738:	20 83       	st	Z, r18

0000073a <.Loc.200>:
        PORT_L_PWM_Y |= (1 << L_PWM_Y);        // L_PWM = 0
     73a:	8e e2       	ldi	r24, 0x2E	; 46
     73c:	90 e0       	ldi	r25, 0x00	; 0
     73e:	fc 01       	movw	r30, r24
     740:	20 81       	ld	r18, Z
     742:	8e e2       	ldi	r24, 0x2E	; 46
     744:	90 e0       	ldi	r25, 0x00	; 0

00000746 <.Loc.201>:
     746:	20 62       	ori	r18, 0x20	; 32
     748:	fc 01       	movw	r30, r24
     74a:	20 83       	st	Z, r18

0000074c <.Loc.202>:

}
     74c:	00 00       	nop
     74e:	df 91       	pop	r29
     750:	cf 91       	pop	r28
     752:	08 95       	ret

00000754 <zmotorpositief>:

void zmotorpositief(void)
{
     754:	cf 93       	push	r28
     756:	df 93       	push	r29
     758:	cd b7       	in	r28, 0x3d	; 61
     75a:	de b7       	in	r29, 0x3e	; 62

0000075c <.Loc.204>:
    //  MOTOR AAN (positief)
        PORT_R_EN_Z |= (1 << R_EN_Z);                  // R_EN = 1
     75c:	82 e2       	ldi	r24, 0x22	; 34
     75e:	90 e0       	ldi	r25, 0x00	; 0
     760:	fc 01       	movw	r30, r24
     762:	20 81       	ld	r18, Z
     764:	82 e2       	ldi	r24, 0x22	; 34
     766:	90 e0       	ldi	r25, 0x00	; 0

00000768 <.Loc.205>:
     768:	24 60       	ori	r18, 0x04	; 4
     76a:	fc 01       	movw	r30, r24
     76c:	20 83       	st	Z, r18

0000076e <.Loc.206>:
        PORT_L_EN_Z |= (1 << L_EN_Z);                  // L_EN = 1
     76e:	82 e2       	ldi	r24, 0x22	; 34
     770:	90 e0       	ldi	r25, 0x00	; 0
     772:	fc 01       	movw	r30, r24
     774:	20 81       	ld	r18, Z
     776:	82 e2       	ldi	r24, 0x22	; 34
     778:	90 e0       	ldi	r25, 0x00	; 0

0000077a <.Loc.207>:
     77a:	28 60       	ori	r18, 0x08	; 8
     77c:	fc 01       	movw	r30, r24
     77e:	20 83       	st	Z, r18

00000780 <.Loc.208>:
        PORT_R_PWM_Z |= (1 << R_PWM_Z);      // R_PWM = 1
     780:	8e e2       	ldi	r24, 0x2E	; 46
     782:	90 e0       	ldi	r25, 0x00	; 0
     784:	fc 01       	movw	r30, r24
     786:	20 81       	ld	r18, Z
     788:	8e e2       	ldi	r24, 0x2E	; 46
     78a:	90 e0       	ldi	r25, 0x00	; 0

0000078c <.Loc.209>:
     78c:	28 60       	ori	r18, 0x08	; 8
     78e:	fc 01       	movw	r30, r24
     790:	20 83       	st	Z, r18

00000792 <.Loc.210>:
        PORT_L_PWM_Z &= ~(1 << L_PWM_Z);  // L_PWM = 0
     792:	84 e3       	ldi	r24, 0x34	; 52
     794:	90 e0       	ldi	r25, 0x00	; 0
     796:	fc 01       	movw	r30, r24
     798:	20 81       	ld	r18, Z

0000079a <.Loc.211>:
     79a:	84 e3       	ldi	r24, 0x34	; 52
     79c:	90 e0       	ldi	r25, 0x00	; 0

0000079e <.Loc.212>:
     79e:	2f 7d       	andi	r18, 0xDF	; 223
     7a0:	fc 01       	movw	r30, r24
     7a2:	20 83       	st	Z, r18

000007a4 <.Loc.213>:
}
     7a4:	00 00       	nop
     7a6:	df 91       	pop	r29
     7a8:	cf 91       	pop	r28
     7aa:	08 95       	ret

000007ac <zmotoruit>:

void zmotoruit(void)
{
     7ac:	cf 93       	push	r28
     7ae:	df 93       	push	r29
     7b0:	cd b7       	in	r28, 0x3d	; 61
     7b2:	de b7       	in	r29, 0x3e	; 62

000007b4 <.Loc.215>:
      // MOTOR UIT
        PORT_R_EN_Z &= ~(1 << R_EN_Z);           // R_EN = 0
     7b4:	82 e2       	ldi	r24, 0x22	; 34
     7b6:	90 e0       	ldi	r25, 0x00	; 0
     7b8:	fc 01       	movw	r30, r24
     7ba:	20 81       	ld	r18, Z

000007bc <.Loc.216>:
     7bc:	82 e2       	ldi	r24, 0x22	; 34
     7be:	90 e0       	ldi	r25, 0x00	; 0

000007c0 <.Loc.217>:
     7c0:	2b 7f       	andi	r18, 0xFB	; 251
     7c2:	fc 01       	movw	r30, r24
     7c4:	20 83       	st	Z, r18

000007c6 <.Loc.218>:
        PORT_L_EN_Z &= ~(1 << L_EN_Z);            // L_EN = 0
     7c6:	82 e2       	ldi	r24, 0x22	; 34
     7c8:	90 e0       	ldi	r25, 0x00	; 0
     7ca:	fc 01       	movw	r30, r24
     7cc:	20 81       	ld	r18, Z

000007ce <.Loc.219>:
     7ce:	82 e2       	ldi	r24, 0x22	; 34
     7d0:	90 e0       	ldi	r25, 0x00	; 0

000007d2 <.Loc.220>:
     7d2:	27 7f       	andi	r18, 0xF7	; 247
     7d4:	fc 01       	movw	r30, r24
     7d6:	20 83       	st	Z, r18

000007d8 <.Loc.221>:
        PORT_R_PWM_Z &= ~(1 << R_PWM_Z); // R_PWM = 0
     7d8:	8e e2       	ldi	r24, 0x2E	; 46
     7da:	90 e0       	ldi	r25, 0x00	; 0
     7dc:	fc 01       	movw	r30, r24
     7de:	20 81       	ld	r18, Z

000007e0 <.Loc.222>:
     7e0:	8e e2       	ldi	r24, 0x2E	; 46
     7e2:	90 e0       	ldi	r25, 0x00	; 0

000007e4 <.Loc.223>:
     7e4:	27 7f       	andi	r18, 0xF7	; 247
     7e6:	fc 01       	movw	r30, r24
     7e8:	20 83       	st	Z, r18

000007ea <.Loc.224>:
        PORT_L_PWM_Z &= ~(1 << L_PWM_Z);  // L_PWM = 0
     7ea:	84 e3       	ldi	r24, 0x34	; 52
     7ec:	90 e0       	ldi	r25, 0x00	; 0
     7ee:	fc 01       	movw	r30, r24
     7f0:	20 81       	ld	r18, Z

000007f2 <.Loc.225>:
     7f2:	84 e3       	ldi	r24, 0x34	; 52
     7f4:	90 e0       	ldi	r25, 0x00	; 0

000007f6 <.Loc.226>:
     7f6:	2f 7d       	andi	r18, 0xDF	; 223
     7f8:	fc 01       	movw	r30, r24
     7fa:	20 83       	st	Z, r18

000007fc <.Loc.227>:
}
     7fc:	00 00       	nop
     7fe:	df 91       	pop	r29
     800:	cf 91       	pop	r28
     802:	08 95       	ret

00000804 <zmotornegatief>:

void zmotornegatief(void)
{
     804:	cf 93       	push	r28
     806:	df 93       	push	r29
     808:	cd b7       	in	r28, 0x3d	; 61
     80a:	de b7       	in	r29, 0x3e	; 62

0000080c <.Loc.229>:
    // MOTOR AAN (negatief)
        PORT_R_EN_Z |= (1 << R_EN_Z);                   // R_EN = 1
     80c:	82 e2       	ldi	r24, 0x22	; 34
     80e:	90 e0       	ldi	r25, 0x00	; 0
     810:	fc 01       	movw	r30, r24
     812:	20 81       	ld	r18, Z
     814:	82 e2       	ldi	r24, 0x22	; 34
     816:	90 e0       	ldi	r25, 0x00	; 0

00000818 <.Loc.230>:
     818:	24 60       	ori	r18, 0x04	; 4
     81a:	fc 01       	movw	r30, r24
     81c:	20 83       	st	Z, r18

0000081e <.Loc.231>:
        PORT_L_EN_Z |= (1 << L_EN_Z);                    // L_EN = 1
     81e:	82 e2       	ldi	r24, 0x22	; 34
     820:	90 e0       	ldi	r25, 0x00	; 0
     822:	fc 01       	movw	r30, r24
     824:	20 81       	ld	r18, Z
     826:	82 e2       	ldi	r24, 0x22	; 34
     828:	90 e0       	ldi	r25, 0x00	; 0

0000082a <.Loc.232>:
     82a:	28 60       	ori	r18, 0x08	; 8
     82c:	fc 01       	movw	r30, r24
     82e:	20 83       	st	Z, r18

00000830 <.Loc.233>:
        PORT_R_PWM_Z &= ~(1 << R_PWM_Z);    // RPWM = 1
     830:	8e e2       	ldi	r24, 0x2E	; 46
     832:	90 e0       	ldi	r25, 0x00	; 0
     834:	fc 01       	movw	r30, r24
     836:	20 81       	ld	r18, Z

00000838 <.Loc.234>:
     838:	8e e2       	ldi	r24, 0x2E	; 46
     83a:	90 e0       	ldi	r25, 0x00	; 0

0000083c <.Loc.235>:
     83c:	27 7f       	andi	r18, 0xF7	; 247
     83e:	fc 01       	movw	r30, r24
     840:	20 83       	st	Z, r18

00000842 <.Loc.236>:
        PORT_L_PWM_Z |= (1 << L_PWM_Z);         // LPWM = 0
     842:	84 e3       	ldi	r24, 0x34	; 52
     844:	90 e0       	ldi	r25, 0x00	; 0
     846:	fc 01       	movw	r30, r24
     848:	20 81       	ld	r18, Z
     84a:	84 e3       	ldi	r24, 0x34	; 52
     84c:	90 e0       	ldi	r25, 0x00	; 0

0000084e <.Loc.237>:
     84e:	20 62       	ori	r18, 0x20	; 32
     850:	fc 01       	movw	r30, r24
     852:	20 83       	st	Z, r18

00000854 <.Loc.238>:

}
     854:	00 00       	nop
     856:	df 91       	pop	r29
     858:	cf 91       	pop	r28
     85a:	08 95       	ret

0000085c <ybeweging>:

void ybeweging(int locatie)
{
     85c:	cf 93       	push	r28
     85e:	df 93       	push	r29
     860:	0f 92       	push	r0
     862:	0f 92       	push	r0
     864:	cd b7       	in	r28, 0x3d	; 61
     866:	de b7       	in	r29, 0x3e	; 62
     868:	9a 83       	std	Y+2, r25	; 0x02
     86a:	89 83       	std	Y+1, r24	; 0x01

0000086c <.Loc.240>:

    static int vorigestaatknopy = 0;

    knopy = locatie;
     86c:	89 81       	ldd	r24, Y+1	; 0x01
     86e:	9a 81       	ldd	r25, Y+2	; 0x02
     870:	90 93 07 02 	sts	0x0207, r25	; 0x800207 <knopy+0x1>
     874:	80 93 06 02 	sts	0x0206, r24	; 0x800206 <knopy>

00000878 <.Loc.241>:
    ybereikt = 0;
     878:	10 92 05 02 	sts	0x0205, r1	; 0x800205 <ybereikt+0x1>
     87c:	10 92 04 02 	sts	0x0204, r1	; 0x800204 <ybereikt>

00000880 <.Loc.242>:

    if (knopy > vorigestaatknopy)
     880:	20 91 06 02 	lds	r18, 0x0206	; 0x800206 <knopy>
     884:	30 91 07 02 	lds	r19, 0x0207	; 0x800207 <knopy+0x1>
     888:	80 91 08 02 	lds	r24, 0x0208	; 0x800208 <vorigestaatknopy.0>
     88c:	90 91 09 02 	lds	r25, 0x0209	; 0x800209 <vorigestaatknopy.0+0x1>

00000890 <.Loc.243>:
     890:	28 17       	cp	r18, r24
     892:	39 07       	cpc	r19, r25
     894:	59 f0       	breq	.+22     	; 0x8ac <.L27>
     896:	54 f0       	brlt	.+20     	; 0x8ac <.L27>

00000898 <.Loc.244>:
    {
        ymotorpositief();
     898:	0e 94 26 03 	call	0x64c	; 0x64c <ymotorpositief>

0000089c <.Loc.245>:
	...

0000089e <.L28>:
        while (ybereikt == 0){}
     89e:	80 91 04 02 	lds	r24, 0x0204	; 0x800204 <ybereikt>
     8a2:	90 91 05 02 	lds	r25, 0x0205	; 0x800205 <ybereikt+0x1>
     8a6:	00 97       	sbiw	r24, 0x00	; 0
     8a8:	d1 f3       	breq	.-12     	; 0x89e <.L28>
     8aa:	14 c0       	rjmp	.+40     	; 0x8d4 <.L29>

000008ac <.L27>:
    }
    else if (knopy < vorigestaatknopy)
     8ac:	20 91 06 02 	lds	r18, 0x0206	; 0x800206 <knopy>
     8b0:	30 91 07 02 	lds	r19, 0x0207	; 0x800207 <knopy+0x1>
     8b4:	80 91 08 02 	lds	r24, 0x0208	; 0x800208 <vorigestaatknopy.0>
     8b8:	90 91 09 02 	lds	r25, 0x0209	; 0x800209 <vorigestaatknopy.0+0x1>

000008bc <.Loc.248>:
     8bc:	28 17       	cp	r18, r24
     8be:	39 07       	cpc	r19, r25
     8c0:	4c f4       	brge	.+18     	; 0x8d4 <.L29>

000008c2 <.Loc.249>:
    {
        ymotornegatief();
     8c2:	0e 94 7e 03 	call	0x6fc	; 0x6fc <ymotornegatief>

000008c6 <.Loc.250>:
	...

000008c8 <.L30>:
        while (ybereikt == 0){}
     8c8:	80 91 04 02 	lds	r24, 0x0204	; 0x800204 <ybereikt>
     8cc:	90 91 05 02 	lds	r25, 0x0205	; 0x800205 <ybereikt+0x1>
     8d0:	00 97       	sbiw	r24, 0x00	; 0
     8d2:	d1 f3       	breq	.-12     	; 0x8c8 <.L30>

000008d4 <.L29>:
    }
    ymotoruit();
     8d4:	0e 94 52 03 	call	0x6a4	; 0x6a4 <ymotoruit>

000008d8 <.Loc.253>:
    vorigestaatknopy = knopy;
     8d8:	80 91 06 02 	lds	r24, 0x0206	; 0x800206 <knopy>
     8dc:	90 91 07 02 	lds	r25, 0x0207	; 0x800207 <knopy+0x1>
     8e0:	90 93 09 02 	sts	0x0209, r25	; 0x800209 <vorigestaatknopy.0+0x1>
     8e4:	80 93 08 02 	sts	0x0208, r24	; 0x800208 <vorigestaatknopy.0>

000008e8 <.Loc.254>:

}
     8e8:	00 00       	nop
     8ea:	0f 90       	pop	r0
     8ec:	0f 90       	pop	r0
     8ee:	df 91       	pop	r29
     8f0:	cf 91       	pop	r28
     8f2:	08 95       	ret

000008f4 <bewegingoppak>:

void bewegingoppak(void)
{
     8f4:	cf 93       	push	r28
     8f6:	df 93       	push	r29
     8f8:	cd b7       	in	r28, 0x3d	; 61
     8fa:	de b7       	in	r29, 0x3e	; 62
     8fc:	c6 54       	subi	r28, 0x46	; 70
     8fe:	d1 09       	sbc	r29, r1
     900:	0f b6       	in	r0, 0x3f	; 63
     902:	f8 94       	cli
     904:	de bf       	out	0x3e, r29	; 62
     906:	0f be       	out	0x3f, r0	; 63
     908:	cd bf       	out	0x3d, r28	; 61

0000090a <.Loc.256>:
    uint8_t z1_gebruikt = 0;
     90a:	19 82       	std	Y+1, r1	; 0x01

0000090c <.Loc.257>:
    uint8_t z0_gebruikt = 0;
     90c:	1a 82       	std	Y+2, r1	; 0x02

0000090e <.Loc.258>:

    // Stap 1: Z-as omlaag
    zmotorpositief();
     90e:	0e 94 aa 03 	call	0x754	; 0x754 <zmotorpositief>

00000912 <.L42>:

    while (1)
    {
        if (!z1_gebruikt && !(PIN_Z1 & (1 << KNOP_Z1)))
     912:	89 81       	ldd	r24, Y+1	; 0x01
     914:	88 23       	and	r24, r24
     916:	e9 f7       	brne	.-6      	; 0x912 <.L42>

00000918 <.Loc.260>:
     918:	86 e2       	ldi	r24, 0x26	; 38
     91a:	90 e0       	ldi	r25, 0x00	; 0
     91c:	dc 01       	movw	r26, r24
     91e:	8c 91       	ld	r24, X

00000920 <.Loc.261>:
     920:	88 2f       	mov	r24, r24
     922:	90 e0       	ldi	r25, 0x00	; 0
     924:	81 70       	andi	r24, 0x01	; 1
     926:	99 27       	eor	r25, r25

00000928 <.Loc.262>:
     928:	00 97       	sbiw	r24, 0x00	; 0
     92a:	99 f7       	brne	.-26     	; 0x912 <.L42>
     92c:	80 e0       	ldi	r24, 0x00	; 0
     92e:	90 e0       	ldi	r25, 0x00	; 0
     930:	a0 e2       	ldi	r26, 0x20	; 32
     932:	b1 e4       	ldi	r27, 0x41	; 65
     934:	8b 83       	std	Y+3, r24	; 0x03
     936:	9c 83       	std	Y+4, r25	; 0x04
     938:	ad 83       	std	Y+5, r26	; 0x05
     93a:	be 83       	std	Y+6, r27	; 0x06

0000093c <.LBB30>:

	__builtin_avr_delay_cycles(__ticks_dc);

#else
	uint16_t __ticks;
	__tmp = ((F_CPU) / 4e3) * __ms;
     93c:	20 e0       	ldi	r18, 0x00	; 0
     93e:	30 e0       	ldi	r19, 0x00	; 0
     940:	4a e7       	ldi	r20, 0x7A	; 122
     942:	55 e4       	ldi	r21, 0x45	; 69
     944:	6b 81       	ldd	r22, Y+3	; 0x03
     946:	7c 81       	ldd	r23, Y+4	; 0x04
     948:	8d 81       	ldd	r24, Y+5	; 0x05
     94a:	9e 81       	ldd	r25, Y+6	; 0x06
     94c:	0e 94 12 08 	call	0x1024	; 0x1024 <__mulsf3>
     950:	6f a3       	std	Y+39, r22	; 0x27
     952:	78 a7       	std	Y+40, r23	; 0x28
     954:	89 a7       	std	Y+41, r24	; 0x29
     956:	9a a7       	std	Y+42, r25	; 0x2a
     958:	8f a1       	ldd	r24, Y+39	; 0x27
     95a:	98 a5       	ldd	r25, Y+40	; 0x28
     95c:	a9 a5       	ldd	r26, Y+41	; 0x29
     95e:	ba a5       	ldd	r27, Y+42	; 0x2a
     960:	8f 83       	std	Y+7, r24	; 0x07
     962:	98 87       	std	Y+8, r25	; 0x08
     964:	a9 87       	std	Y+9, r26	; 0x09
     966:	ba 87       	std	Y+10, r27	; 0x0a

00000968 <.Loc.264>:
	if (__tmp < 1.0)
     968:	20 e0       	ldi	r18, 0x00	; 0
     96a:	30 e0       	ldi	r19, 0x00	; 0
     96c:	40 e8       	ldi	r20, 0x80	; 128
     96e:	5f e3       	ldi	r21, 0x3F	; 63
     970:	6f 81       	ldd	r22, Y+7	; 0x07
     972:	78 85       	ldd	r23, Y+8	; 0x08
     974:	89 85       	ldd	r24, Y+9	; 0x09
     976:	9a 85       	ldd	r25, Y+10	; 0x0a
     978:	0e 94 8c 07 	call	0xf18	; 0xf18 <__cmpsf2>
     97c:	88 23       	and	r24, r24
     97e:	2c f4       	brge	.+10     	; 0x98a <.L58>

00000980 <.Loc.265>:
		__ticks = 1;
     980:	81 e0       	ldi	r24, 0x01	; 1
     982:	90 e0       	ldi	r25, 0x00	; 0
     984:	9c 87       	std	Y+12, r25	; 0x0c
     986:	8b 87       	std	Y+11, r24	; 0x0b
     988:	55 c0       	rjmp	.+170    	; 0xa34 <.L35>

0000098a <.L58>:
	else if (__tmp > 65535)
     98a:	20 e0       	ldi	r18, 0x00	; 0
     98c:	3f ef       	ldi	r19, 0xFF	; 255
     98e:	4f e7       	ldi	r20, 0x7F	; 127
     990:	57 e4       	ldi	r21, 0x47	; 71
     992:	6f 81       	ldd	r22, Y+7	; 0x07
     994:	78 85       	ldd	r23, Y+8	; 0x08
     996:	89 85       	ldd	r24, Y+9	; 0x09
     998:	9a 85       	ldd	r25, Y+10	; 0x0a
     99a:	0e 94 0d 08 	call	0x101a	; 0x101a <__gesf2>
     99e:	88 23       	and	r24, r24
     9a0:	d9 f1       	breq	.+118    	; 0xa18 <.L59>
     9a2:	d4 f1       	brlt	.+116    	; 0xa18 <.L59>

000009a4 <.Loc.267>:
	{
		//	__ticks = requested delay in 1/10 ms
		__ticks = (uint16_t) (__ms * 10.0);
     9a4:	20 e0       	ldi	r18, 0x00	; 0
     9a6:	30 e0       	ldi	r19, 0x00	; 0
     9a8:	40 e2       	ldi	r20, 0x20	; 32
     9aa:	51 e4       	ldi	r21, 0x41	; 65
     9ac:	6b 81       	ldd	r22, Y+3	; 0x03
     9ae:	7c 81       	ldd	r23, Y+4	; 0x04
     9b0:	8d 81       	ldd	r24, Y+5	; 0x05
     9b2:	9e 81       	ldd	r25, Y+6	; 0x06
     9b4:	0e 94 12 08 	call	0x1024	; 0x1024 <__mulsf3>
     9b8:	6b a7       	std	Y+43, r22	; 0x2b
     9ba:	7c a7       	std	Y+44, r23	; 0x2c
     9bc:	8d a7       	std	Y+45, r24	; 0x2d
     9be:	9e a7       	std	Y+46, r25	; 0x2e
     9c0:	8b a5       	ldd	r24, Y+43	; 0x2b
     9c2:	9c a5       	ldd	r25, Y+44	; 0x2c
     9c4:	ad a5       	ldd	r26, Y+45	; 0x2d
     9c6:	be a5       	ldd	r27, Y+46	; 0x2e
     9c8:	8f 8f       	std	Y+31, r24	; 0x1f
     9ca:	98 a3       	std	Y+32, r25	; 0x20
     9cc:	a9 a3       	std	Y+33, r26	; 0x21
     9ce:	ba a3       	std	Y+34, r27	; 0x22

000009d0 <.Loc.268>:
     9d0:	6f 8d       	ldd	r22, Y+31	; 0x1f
     9d2:	78 a1       	ldd	r23, Y+32	; 0x20
     9d4:	89 a1       	ldd	r24, Y+33	; 0x21
     9d6:	9a a1       	ldd	r25, Y+34	; 0x22
     9d8:	0e 94 91 07 	call	0xf22	; 0xf22 <__fixunssfsi>
     9dc:	6f a7       	std	Y+47, r22	; 0x2f
     9de:	78 ab       	std	Y+48, r23	; 0x30
     9e0:	89 ab       	std	Y+49, r24	; 0x31
     9e2:	9a ab       	std	Y+50, r25	; 0x32
     9e4:	af a5       	ldd	r26, Y+47	; 0x2f
     9e6:	b8 a9       	ldd	r27, Y+48	; 0x30
     9e8:	bc 87       	std	Y+12, r27	; 0x0c
     9ea:	ab 87       	std	Y+11, r26	; 0x0b

000009ec <.Loc.269>:
		while(__ticks)
     9ec:	10 c0       	rjmp	.+32     	; 0xa0e <.L38>

000009ee <.L39>:
     9ee:	80 e9       	ldi	r24, 0x90	; 144
     9f0:	91 e0       	ldi	r25, 0x01	; 1
     9f2:	9e 87       	std	Y+14, r25	; 0x0e
     9f4:	8d 87       	std	Y+13, r24	; 0x0d

000009f6 <.LBB32>:
		"sbc %B0,__zero_reg__"    "\n\t"
		"brne 1b"
		: "+d" (__count)
	);
#else
	__asm__ volatile (
     9f6:	8d 85       	ldd	r24, Y+13	; 0x0d
     9f8:	9e 85       	ldd	r25, Y+14	; 0x0e

000009fa <.L1^B1>:
     9fa:	01 97       	sbiw	r24, 0x01	; 1
     9fc:	f1 f7       	brne	.-4      	; 0x9fa <.L1^B1>
     9fe:	9e 87       	std	Y+14, r25	; 0x0e
     a00:	8d 87       	std	Y+13, r24	; 0x0d

00000a02 <.Loc.271>:
	...

00000a04 <.LBE32>:
		{
			// wait 1/10 ms
			_delay_loop_2(((F_CPU) / 4e3) / 10);
			__ticks --;
     a04:	8b 85       	ldd	r24, Y+11	; 0x0b
     a06:	9c 85       	ldd	r25, Y+12	; 0x0c
     a08:	01 97       	sbiw	r24, 0x01	; 1
     a0a:	9c 87       	std	Y+12, r25	; 0x0c
     a0c:	8b 87       	std	Y+11, r24	; 0x0b

00000a0e <.L38>:
		while(__ticks)
     a0e:	8b 85       	ldd	r24, Y+11	; 0x0b
     a10:	9c 85       	ldd	r25, Y+12	; 0x0c
     a12:	00 97       	sbiw	r24, 0x00	; 0
     a14:	61 f7       	brne	.-40     	; 0x9ee <.L39>

00000a16 <.Loc.274>:
		}
		return;
     a16:	19 c0       	rjmp	.+50     	; 0xa4a <.L40>

00000a18 <.L59>:
	}
	else
		__ticks = (uint16_t)__tmp;
     a18:	6f 81       	ldd	r22, Y+7	; 0x07
     a1a:	78 85       	ldd	r23, Y+8	; 0x08
     a1c:	89 85       	ldd	r24, Y+9	; 0x09
     a1e:	9a 85       	ldd	r25, Y+10	; 0x0a
     a20:	0e 94 91 07 	call	0xf22	; 0xf22 <__fixunssfsi>
     a24:	6b ab       	std	Y+51, r22	; 0x33
     a26:	7c ab       	std	Y+52, r23	; 0x34
     a28:	8d ab       	std	Y+53, r24	; 0x35
     a2a:	9e ab       	std	Y+54, r25	; 0x36
     a2c:	eb a9       	ldd	r30, Y+51	; 0x33
     a2e:	fc a9       	ldd	r31, Y+52	; 0x34
     a30:	fc 87       	std	Y+12, r31	; 0x0c
     a32:	eb 87       	std	Y+11, r30	; 0x0b

00000a34 <.L35>:
     a34:	8b 85       	ldd	r24, Y+11	; 0x0b
     a36:	9c 85       	ldd	r25, Y+12	; 0x0c
     a38:	98 8b       	std	Y+16, r25	; 0x10
     a3a:	8f 87       	std	Y+15, r24	; 0x0f

00000a3c <.LBB34>:
     a3c:	8f 85       	ldd	r24, Y+15	; 0x0f
     a3e:	98 89       	ldd	r25, Y+16	; 0x10

00000a40 <.L1^B2>:
     a40:	01 97       	sbiw	r24, 0x01	; 1
     a42:	f1 f7       	brne	.-4      	; 0xa40 <.L1^B2>
     a44:	98 8b       	std	Y+16, r25	; 0x10
     a46:	8f 87       	std	Y+15, r24	; 0x0f

00000a48 <.Loc.277>:
	...

00000a4a <.L40>:
        {
            _delay_ms(DEBOUNCE);
            if (!(PIN_Z1 & (1 << KNOP_Z1)))
     a4a:	86 e2       	ldi	r24, 0x26	; 38
     a4c:	90 e0       	ldi	r25, 0x00	; 0
     a4e:	dc 01       	movw	r26, r24
     a50:	8c 91       	ld	r24, X

00000a52 <.Loc.279>:
     a52:	88 2f       	mov	r24, r24
     a54:	90 e0       	ldi	r25, 0x00	; 0
     a56:	81 70       	andi	r24, 0x01	; 1
     a58:	99 27       	eor	r25, r25

00000a5a <.Loc.280>:
     a5a:	00 97       	sbiw	r24, 0x00	; 0
     a5c:	09 f0       	breq	.+2      	; 0xa60 <.Loc.281>

00000a5e <L0^A>:
     a5e:	59 cf       	rjmp	.-334    	; 0x912 <.L42>

00000a60 <.Loc.281>:
            {
                zmotoruit();
     a60:	0e 94 d6 03 	call	0x7ac	; 0x7ac <zmotoruit>

00000a64 <.Loc.282>:
                magneetaan();
     a64:	0e 94 04 03 	call	0x608	; 0x608 <magneetaan>

00000a68 <.Loc.283>:
                z1_gebruikt = 1;   //knop genegeerd vanaf nu
     a68:	81 e0       	ldi	r24, 0x01	; 1
     a6a:	89 83       	std	Y+1, r24	; 0x01

00000a6c <.Loc.284>:
	...

00000a6e <.Loc.285>:
            }
        }
    }

    // Stap 2: Z-as omhoog
    zmotornegatief();
     a6e:	0e 94 02 04 	call	0x804	; 0x804 <zmotornegatief>

00000a72 <.L53>:

    while (1)
    {
        if (!z0_gebruikt && !(PIN_Z0 & (1 << KNOP_Z0)))
     a72:	8a 81       	ldd	r24, Y+2	; 0x02
     a74:	88 23       	and	r24, r24
     a76:	e9 f7       	brne	.-6      	; 0xa72 <.L53>

00000a78 <.Loc.287>:
     a78:	86 e2       	ldi	r24, 0x26	; 38
     a7a:	90 e0       	ldi	r25, 0x00	; 0
     a7c:	fc 01       	movw	r30, r24
     a7e:	80 81       	ld	r24, Z

00000a80 <.Loc.288>:
     a80:	88 2f       	mov	r24, r24
     a82:	90 e0       	ldi	r25, 0x00	; 0
     a84:	82 70       	andi	r24, 0x02	; 2
     a86:	99 27       	eor	r25, r25

00000a88 <.Loc.289>:
     a88:	00 97       	sbiw	r24, 0x00	; 0
     a8a:	99 f7       	brne	.-26     	; 0xa72 <.L53>
     a8c:	80 e0       	ldi	r24, 0x00	; 0
     a8e:	90 e0       	ldi	r25, 0x00	; 0
     a90:	a0 e2       	ldi	r26, 0x20	; 32
     a92:	b1 e4       	ldi	r27, 0x41	; 65
     a94:	89 8b       	std	Y+17, r24	; 0x11
     a96:	9a 8b       	std	Y+18, r25	; 0x12
     a98:	ab 8b       	std	Y+19, r26	; 0x13
     a9a:	bc 8b       	std	Y+20, r27	; 0x14

00000a9c <.LBB36>:
	__tmp = ((F_CPU) / 4e3) * __ms;
     a9c:	20 e0       	ldi	r18, 0x00	; 0
     a9e:	30 e0       	ldi	r19, 0x00	; 0
     aa0:	4a e7       	ldi	r20, 0x7A	; 122
     aa2:	55 e4       	ldi	r21, 0x45	; 69
     aa4:	69 89       	ldd	r22, Y+17	; 0x11
     aa6:	7a 89       	ldd	r23, Y+18	; 0x12
     aa8:	8b 89       	ldd	r24, Y+19	; 0x13
     aaa:	9c 89       	ldd	r25, Y+20	; 0x14
     aac:	0e 94 12 08 	call	0x1024	; 0x1024 <__mulsf3>
     ab0:	6f ab       	std	Y+55, r22	; 0x37
     ab2:	78 af       	std	Y+56, r23	; 0x38
     ab4:	89 af       	std	Y+57, r24	; 0x39
     ab6:	9a af       	std	Y+58, r25	; 0x3a
     ab8:	8f a9       	ldd	r24, Y+55	; 0x37
     aba:	98 ad       	ldd	r25, Y+56	; 0x38
     abc:	a9 ad       	ldd	r26, Y+57	; 0x39
     abe:	ba ad       	ldd	r27, Y+58	; 0x3a
     ac0:	8d 8b       	std	Y+21, r24	; 0x15
     ac2:	9e 8b       	std	Y+22, r25	; 0x16
     ac4:	af 8b       	std	Y+23, r26	; 0x17
     ac6:	b8 8f       	std	Y+24, r27	; 0x18

00000ac8 <.Loc.291>:
	if (__tmp < 1.0)
     ac8:	20 e0       	ldi	r18, 0x00	; 0
     aca:	30 e0       	ldi	r19, 0x00	; 0
     acc:	40 e8       	ldi	r20, 0x80	; 128
     ace:	5f e3       	ldi	r21, 0x3F	; 63
     ad0:	6d 89       	ldd	r22, Y+21	; 0x15
     ad2:	7e 89       	ldd	r23, Y+22	; 0x16
     ad4:	8f 89       	ldd	r24, Y+23	; 0x17
     ad6:	98 8d       	ldd	r25, Y+24	; 0x18
     ad8:	0e 94 8c 07 	call	0xf18	; 0xf18 <__cmpsf2>
     adc:	88 23       	and	r24, r24
     ade:	2c f4       	brge	.+10     	; 0xaea <.L60>

00000ae0 <.Loc.292>:
		__ticks = 1;
     ae0:	81 e0       	ldi	r24, 0x01	; 1
     ae2:	90 e0       	ldi	r25, 0x00	; 0
     ae4:	9a 8f       	std	Y+26, r25	; 0x1a
     ae6:	89 8f       	std	Y+25, r24	; 0x19
     ae8:	5e c0       	rjmp	.+188    	; 0xba6 <.L46>

00000aea <.L60>:
	else if (__tmp > 65535)
     aea:	20 e0       	ldi	r18, 0x00	; 0
     aec:	3f ef       	ldi	r19, 0xFF	; 255
     aee:	4f e7       	ldi	r20, 0x7F	; 127
     af0:	57 e4       	ldi	r21, 0x47	; 71
     af2:	6d 89       	ldd	r22, Y+21	; 0x15
     af4:	7e 89       	ldd	r23, Y+22	; 0x16
     af6:	8f 89       	ldd	r24, Y+23	; 0x17
     af8:	98 8d       	ldd	r25, Y+24	; 0x18
     afa:	0e 94 0d 08 	call	0x101a	; 0x101a <__gesf2>
     afe:	88 23       	and	r24, r24
     b00:	09 f0       	breq	.+2      	; 0xb04 <L0^A>

00000b02 <L0^A>:
     b02:	0c f4       	brge	.+2      	; 0xb06 <.Loc.294>

00000b04 <L0^A>:
     b04:	3e c0       	rjmp	.+124    	; 0xb82 <.L61>

00000b06 <.Loc.294>:
		__ticks = (uint16_t) (__ms * 10.0);
     b06:	20 e0       	ldi	r18, 0x00	; 0
     b08:	30 e0       	ldi	r19, 0x00	; 0
     b0a:	40 e2       	ldi	r20, 0x20	; 32
     b0c:	51 e4       	ldi	r21, 0x41	; 65
     b0e:	69 89       	ldd	r22, Y+17	; 0x11
     b10:	7a 89       	ldd	r23, Y+18	; 0x12
     b12:	8b 89       	ldd	r24, Y+19	; 0x13
     b14:	9c 89       	ldd	r25, Y+20	; 0x14
     b16:	0e 94 12 08 	call	0x1024	; 0x1024 <__mulsf3>
     b1a:	6b af       	std	Y+59, r22	; 0x3b
     b1c:	7c af       	std	Y+60, r23	; 0x3c
     b1e:	8d af       	std	Y+61, r24	; 0x3d
     b20:	9e af       	std	Y+62, r25	; 0x3e
     b22:	8b ad       	ldd	r24, Y+59	; 0x3b
     b24:	9c ad       	ldd	r25, Y+60	; 0x3c
     b26:	ad ad       	ldd	r26, Y+61	; 0x3d
     b28:	be ad       	ldd	r27, Y+62	; 0x3e
     b2a:	8b a3       	std	Y+35, r24	; 0x23
     b2c:	9c a3       	std	Y+36, r25	; 0x24
     b2e:	ad a3       	std	Y+37, r26	; 0x25
     b30:	be a3       	std	Y+38, r27	; 0x26

00000b32 <.Loc.295>:
     b32:	6b a1       	ldd	r22, Y+35	; 0x23
     b34:	7c a1       	ldd	r23, Y+36	; 0x24
     b36:	8d a1       	ldd	r24, Y+37	; 0x25
     b38:	9e a1       	ldd	r25, Y+38	; 0x26
     b3a:	0e 94 91 07 	call	0xf22	; 0xf22 <__fixunssfsi>
     b3e:	23 96       	adiw	r28, 0x03	; 3
     b40:	6c af       	std	Y+60, r22	; 0x3c
     b42:	7d af       	std	Y+61, r23	; 0x3d
     b44:	8e af       	std	Y+62, r24	; 0x3e
     b46:	9f af       	std	Y+63, r25	; 0x3f
     b48:	23 97       	sbiw	r28, 0x03	; 3
     b4a:	21 96       	adiw	r28, 0x01	; 1
     b4c:	ae ad       	ldd	r26, Y+62	; 0x3e
     b4e:	bf ad       	ldd	r27, Y+63	; 0x3f
     b50:	21 97       	sbiw	r28, 0x01	; 1
     b52:	ba 8f       	std	Y+26, r27	; 0x1a
     b54:	a9 8f       	std	Y+25, r26	; 0x19

00000b56 <.Loc.296>:
		while(__ticks)
     b56:	10 c0       	rjmp	.+32     	; 0xb78 <.L49>

00000b58 <.L50>:
     b58:	80 e9       	ldi	r24, 0x90	; 144
     b5a:	91 e0       	ldi	r25, 0x01	; 1
     b5c:	9c 8f       	std	Y+28, r25	; 0x1c
     b5e:	8b 8f       	std	Y+27, r24	; 0x1b

00000b60 <.LBB38>:
     b60:	8b 8d       	ldd	r24, Y+27	; 0x1b
     b62:	9c 8d       	ldd	r25, Y+28	; 0x1c

00000b64 <.L1^B3>:
     b64:	01 97       	sbiw	r24, 0x01	; 1
     b66:	f1 f7       	brne	.-4      	; 0xb64 <.L1^B3>
     b68:	9c 8f       	std	Y+28, r25	; 0x1c
     b6a:	8b 8f       	std	Y+27, r24	; 0x1b

00000b6c <.Loc.298>:
	...

00000b6e <.LBE38>:
			__ticks --;
     b6e:	89 8d       	ldd	r24, Y+25	; 0x19
     b70:	9a 8d       	ldd	r25, Y+26	; 0x1a
     b72:	01 97       	sbiw	r24, 0x01	; 1
     b74:	9a 8f       	std	Y+26, r25	; 0x1a
     b76:	89 8f       	std	Y+25, r24	; 0x19

00000b78 <.L49>:
		while(__ticks)
     b78:	89 8d       	ldd	r24, Y+25	; 0x19
     b7a:	9a 8d       	ldd	r25, Y+26	; 0x1a
     b7c:	00 97       	sbiw	r24, 0x00	; 0
     b7e:	61 f7       	brne	.-40     	; 0xb58 <.L50>

00000b80 <.Loc.301>:
		return;
     b80:	1d c0       	rjmp	.+58     	; 0xbbc <.L51>

00000b82 <.L61>:
		__ticks = (uint16_t)__tmp;
     b82:	6d 89       	ldd	r22, Y+21	; 0x15
     b84:	7e 89       	ldd	r23, Y+22	; 0x16
     b86:	8f 89       	ldd	r24, Y+23	; 0x17
     b88:	98 8d       	ldd	r25, Y+24	; 0x18
     b8a:	0e 94 91 07 	call	0xf22	; 0xf22 <__fixunssfsi>
     b8e:	27 96       	adiw	r28, 0x07	; 7
     b90:	6c af       	std	Y+60, r22	; 0x3c
     b92:	7d af       	std	Y+61, r23	; 0x3d
     b94:	8e af       	std	Y+62, r24	; 0x3e
     b96:	9f af       	std	Y+63, r25	; 0x3f
     b98:	27 97       	sbiw	r28, 0x07	; 7
     b9a:	25 96       	adiw	r28, 0x05	; 5
     b9c:	ee ad       	ldd	r30, Y+62	; 0x3e
     b9e:	ff ad       	ldd	r31, Y+63	; 0x3f
     ba0:	25 97       	sbiw	r28, 0x05	; 5
     ba2:	fa 8f       	std	Y+26, r31	; 0x1a
     ba4:	e9 8f       	std	Y+25, r30	; 0x19

00000ba6 <.L46>:
     ba6:	89 8d       	ldd	r24, Y+25	; 0x19
     ba8:	9a 8d       	ldd	r25, Y+26	; 0x1a
     baa:	9e 8f       	std	Y+30, r25	; 0x1e
     bac:	8d 8f       	std	Y+29, r24	; 0x1d

00000bae <.LBB40>:
     bae:	8d 8d       	ldd	r24, Y+29	; 0x1d
     bb0:	9e 8d       	ldd	r25, Y+30	; 0x1e

00000bb2 <.L1^B4>:
     bb2:	01 97       	sbiw	r24, 0x01	; 1
     bb4:	f1 f7       	brne	.-4      	; 0xbb2 <.L1^B4>
     bb6:	9e 8f       	std	Y+30, r25	; 0x1e
     bb8:	8d 8f       	std	Y+29, r24	; 0x1d

00000bba <.Loc.304>:
	...

00000bbc <.L51>:
        {
            _delay_ms(DEBOUNCE);
            if (!(PIN_Z0 & (1 << KNOP_Z0)))
     bbc:	86 e2       	ldi	r24, 0x26	; 38
     bbe:	90 e0       	ldi	r25, 0x00	; 0
     bc0:	dc 01       	movw	r26, r24
     bc2:	8c 91       	ld	r24, X

00000bc4 <.Loc.306>:
     bc4:	88 2f       	mov	r24, r24
     bc6:	90 e0       	ldi	r25, 0x00	; 0
     bc8:	82 70       	andi	r24, 0x02	; 2
     bca:	99 27       	eor	r25, r25

00000bcc <.Loc.307>:
     bcc:	00 97       	sbiw	r24, 0x00	; 0
     bce:	09 f0       	breq	.+2      	; 0xbd2 <.Loc.308>

00000bd0 <L0^A>:
     bd0:	50 cf       	rjmp	.-352    	; 0xa72 <.L53>

00000bd2 <.Loc.308>:
            {
                zmotoruit();
     bd2:	0e 94 d6 03 	call	0x7ac	; 0x7ac <zmotoruit>

00000bd6 <.Loc.309>:
                z0_gebruikt = 1;   //knop genegeerd vanaf nu
     bd6:	81 e0       	ldi	r24, 0x01	; 1
     bd8:	8a 83       	std	Y+2, r24	; 0x02

00000bda <.Loc.310>:
	...

00000bdc <.Loc.311>:
                break;
            }
        }
    }
}
     bdc:	00 00       	nop
     bde:	ca 5b       	subi	r28, 0xBA	; 186
     be0:	df 4f       	sbci	r29, 0xFF	; 255
     be2:	0f b6       	in	r0, 0x3f	; 63
     be4:	f8 94       	cli
     be6:	de bf       	out	0x3e, r29	; 62
     be8:	0f be       	out	0x3f, r0	; 63
     bea:	cd bf       	out	0x3d, r28	; 61
     bec:	df 91       	pop	r29
     bee:	cf 91       	pop	r28
     bf0:	08 95       	ret

00000bf2 <bewegingneerzet>:

void bewegingneerzet(void)
{
     bf2:	cf 93       	push	r28
     bf4:	df 93       	push	r29
     bf6:	cd b7       	in	r28, 0x3d	; 61
     bf8:	de b7       	in	r29, 0x3e	; 62
     bfa:	c6 54       	subi	r28, 0x46	; 70
     bfc:	d1 09       	sbc	r29, r1
     bfe:	0f b6       	in	r0, 0x3f	; 63
     c00:	f8 94       	cli
     c02:	de bf       	out	0x3e, r29	; 62
     c04:	0f be       	out	0x3f, r0	; 63
     c06:	cd bf       	out	0x3d, r28	; 61

00000c08 <.Loc.313>:
    uint8_t z1_gebruikt = 0;
     c08:	19 82       	std	Y+1, r1	; 0x01

00000c0a <.Loc.314>:
    uint8_t z0_gebruikt = 0;
     c0a:	1a 82       	std	Y+2, r1	; 0x02

00000c0c <.Loc.315>:

    //Stap 1: Z-as omlaag
    zmotorpositief();
     c0c:	0e 94 aa 03 	call	0x754	; 0x754 <zmotorpositief>

00000c10 <.L74>:

    while (1)
    {
        if (!z1_gebruikt && !(PIN_Z1 & (1 << KNOP_Z1)))
     c10:	89 81       	ldd	r24, Y+1	; 0x01
     c12:	88 23       	and	r24, r24
     c14:	e9 f7       	brne	.-6      	; 0xc10 <.L74>

00000c16 <.Loc.317>:
     c16:	86 e2       	ldi	r24, 0x26	; 38
     c18:	90 e0       	ldi	r25, 0x00	; 0
     c1a:	dc 01       	movw	r26, r24
     c1c:	8c 91       	ld	r24, X

00000c1e <.Loc.318>:
     c1e:	88 2f       	mov	r24, r24
     c20:	90 e0       	ldi	r25, 0x00	; 0
     c22:	81 70       	andi	r24, 0x01	; 1
     c24:	99 27       	eor	r25, r25

00000c26 <.Loc.319>:
     c26:	00 97       	sbiw	r24, 0x00	; 0
     c28:	99 f7       	brne	.-26     	; 0xc10 <.L74>
     c2a:	80 e0       	ldi	r24, 0x00	; 0
     c2c:	90 e0       	ldi	r25, 0x00	; 0
     c2e:	a0 e2       	ldi	r26, 0x20	; 32
     c30:	b1 e4       	ldi	r27, 0x41	; 65
     c32:	8b 83       	std	Y+3, r24	; 0x03
     c34:	9c 83       	std	Y+4, r25	; 0x04
     c36:	ad 83       	std	Y+5, r26	; 0x05
     c38:	be 83       	std	Y+6, r27	; 0x06

00000c3a <.LBB42>:
	__tmp = ((F_CPU) / 4e3) * __ms;
     c3a:	20 e0       	ldi	r18, 0x00	; 0
     c3c:	30 e0       	ldi	r19, 0x00	; 0
     c3e:	4a e7       	ldi	r20, 0x7A	; 122
     c40:	55 e4       	ldi	r21, 0x45	; 69
     c42:	6b 81       	ldd	r22, Y+3	; 0x03
     c44:	7c 81       	ldd	r23, Y+4	; 0x04
     c46:	8d 81       	ldd	r24, Y+5	; 0x05
     c48:	9e 81       	ldd	r25, Y+6	; 0x06
     c4a:	0e 94 12 08 	call	0x1024	; 0x1024 <__mulsf3>
     c4e:	6f a3       	std	Y+39, r22	; 0x27
     c50:	78 a7       	std	Y+40, r23	; 0x28
     c52:	89 a7       	std	Y+41, r24	; 0x29
     c54:	9a a7       	std	Y+42, r25	; 0x2a
     c56:	8f a1       	ldd	r24, Y+39	; 0x27
     c58:	98 a5       	ldd	r25, Y+40	; 0x28
     c5a:	a9 a5       	ldd	r26, Y+41	; 0x29
     c5c:	ba a5       	ldd	r27, Y+42	; 0x2a
     c5e:	8f 83       	std	Y+7, r24	; 0x07
     c60:	98 87       	std	Y+8, r25	; 0x08
     c62:	a9 87       	std	Y+9, r26	; 0x09
     c64:	ba 87       	std	Y+10, r27	; 0x0a

00000c66 <.Loc.321>:
	if (__tmp < 1.0)
     c66:	20 e0       	ldi	r18, 0x00	; 0
     c68:	30 e0       	ldi	r19, 0x00	; 0
     c6a:	40 e8       	ldi	r20, 0x80	; 128
     c6c:	5f e3       	ldi	r21, 0x3F	; 63
     c6e:	6f 81       	ldd	r22, Y+7	; 0x07
     c70:	78 85       	ldd	r23, Y+8	; 0x08
     c72:	89 85       	ldd	r24, Y+9	; 0x09
     c74:	9a 85       	ldd	r25, Y+10	; 0x0a
     c76:	0e 94 8c 07 	call	0xf18	; 0xf18 <__cmpsf2>
     c7a:	88 23       	and	r24, r24
     c7c:	2c f4       	brge	.+10     	; 0xc88 <.L90>

00000c7e <.Loc.322>:
		__ticks = 1;
     c7e:	81 e0       	ldi	r24, 0x01	; 1
     c80:	90 e0       	ldi	r25, 0x00	; 0
     c82:	9c 87       	std	Y+12, r25	; 0x0c
     c84:	8b 87       	std	Y+11, r24	; 0x0b
     c86:	55 c0       	rjmp	.+170    	; 0xd32 <.L67>

00000c88 <.L90>:
	else if (__tmp > 65535)
     c88:	20 e0       	ldi	r18, 0x00	; 0
     c8a:	3f ef       	ldi	r19, 0xFF	; 255
     c8c:	4f e7       	ldi	r20, 0x7F	; 127
     c8e:	57 e4       	ldi	r21, 0x47	; 71
     c90:	6f 81       	ldd	r22, Y+7	; 0x07
     c92:	78 85       	ldd	r23, Y+8	; 0x08
     c94:	89 85       	ldd	r24, Y+9	; 0x09
     c96:	9a 85       	ldd	r25, Y+10	; 0x0a
     c98:	0e 94 0d 08 	call	0x101a	; 0x101a <__gesf2>
     c9c:	88 23       	and	r24, r24
     c9e:	d9 f1       	breq	.+118    	; 0xd16 <.L91>
     ca0:	d4 f1       	brlt	.+116    	; 0xd16 <.L91>

00000ca2 <.Loc.324>:
		__ticks = (uint16_t) (__ms * 10.0);
     ca2:	20 e0       	ldi	r18, 0x00	; 0
     ca4:	30 e0       	ldi	r19, 0x00	; 0
     ca6:	40 e2       	ldi	r20, 0x20	; 32
     ca8:	51 e4       	ldi	r21, 0x41	; 65
     caa:	6b 81       	ldd	r22, Y+3	; 0x03
     cac:	7c 81       	ldd	r23, Y+4	; 0x04
     cae:	8d 81       	ldd	r24, Y+5	; 0x05
     cb0:	9e 81       	ldd	r25, Y+6	; 0x06
     cb2:	0e 94 12 08 	call	0x1024	; 0x1024 <__mulsf3>
     cb6:	6b a7       	std	Y+43, r22	; 0x2b
     cb8:	7c a7       	std	Y+44, r23	; 0x2c
     cba:	8d a7       	std	Y+45, r24	; 0x2d
     cbc:	9e a7       	std	Y+46, r25	; 0x2e
     cbe:	8b a5       	ldd	r24, Y+43	; 0x2b
     cc0:	9c a5       	ldd	r25, Y+44	; 0x2c
     cc2:	ad a5       	ldd	r26, Y+45	; 0x2d
     cc4:	be a5       	ldd	r27, Y+46	; 0x2e
     cc6:	8f 8f       	std	Y+31, r24	; 0x1f
     cc8:	98 a3       	std	Y+32, r25	; 0x20
     cca:	a9 a3       	std	Y+33, r26	; 0x21
     ccc:	ba a3       	std	Y+34, r27	; 0x22

00000cce <.Loc.325>:
     cce:	6f 8d       	ldd	r22, Y+31	; 0x1f
     cd0:	78 a1       	ldd	r23, Y+32	; 0x20
     cd2:	89 a1       	ldd	r24, Y+33	; 0x21
     cd4:	9a a1       	ldd	r25, Y+34	; 0x22
     cd6:	0e 94 91 07 	call	0xf22	; 0xf22 <__fixunssfsi>
     cda:	6f a7       	std	Y+47, r22	; 0x2f
     cdc:	78 ab       	std	Y+48, r23	; 0x30
     cde:	89 ab       	std	Y+49, r24	; 0x31
     ce0:	9a ab       	std	Y+50, r25	; 0x32
     ce2:	af a5       	ldd	r26, Y+47	; 0x2f
     ce4:	b8 a9       	ldd	r27, Y+48	; 0x30
     ce6:	bc 87       	std	Y+12, r27	; 0x0c
     ce8:	ab 87       	std	Y+11, r26	; 0x0b

00000cea <.Loc.326>:
		while(__ticks)
     cea:	10 c0       	rjmp	.+32     	; 0xd0c <.L70>

00000cec <.L71>:
     cec:	80 e9       	ldi	r24, 0x90	; 144
     cee:	91 e0       	ldi	r25, 0x01	; 1
     cf0:	9e 87       	std	Y+14, r25	; 0x0e
     cf2:	8d 87       	std	Y+13, r24	; 0x0d

00000cf4 <.LBB44>:
     cf4:	8d 85       	ldd	r24, Y+13	; 0x0d
     cf6:	9e 85       	ldd	r25, Y+14	; 0x0e

00000cf8 <.L1^B5>:
     cf8:	01 97       	sbiw	r24, 0x01	; 1
     cfa:	f1 f7       	brne	.-4      	; 0xcf8 <.L1^B5>
     cfc:	9e 87       	std	Y+14, r25	; 0x0e
     cfe:	8d 87       	std	Y+13, r24	; 0x0d

00000d00 <.Loc.328>:
	...

00000d02 <.LBE44>:
			__ticks --;
     d02:	8b 85       	ldd	r24, Y+11	; 0x0b
     d04:	9c 85       	ldd	r25, Y+12	; 0x0c
     d06:	01 97       	sbiw	r24, 0x01	; 1
     d08:	9c 87       	std	Y+12, r25	; 0x0c
     d0a:	8b 87       	std	Y+11, r24	; 0x0b

00000d0c <.L70>:
		while(__ticks)
     d0c:	8b 85       	ldd	r24, Y+11	; 0x0b
     d0e:	9c 85       	ldd	r25, Y+12	; 0x0c
     d10:	00 97       	sbiw	r24, 0x00	; 0
     d12:	61 f7       	brne	.-40     	; 0xcec <.L71>

00000d14 <.Loc.331>:
		return;
     d14:	19 c0       	rjmp	.+50     	; 0xd48 <.L72>

00000d16 <.L91>:
		__ticks = (uint16_t)__tmp;
     d16:	6f 81       	ldd	r22, Y+7	; 0x07
     d18:	78 85       	ldd	r23, Y+8	; 0x08
     d1a:	89 85       	ldd	r24, Y+9	; 0x09
     d1c:	9a 85       	ldd	r25, Y+10	; 0x0a
     d1e:	0e 94 91 07 	call	0xf22	; 0xf22 <__fixunssfsi>
     d22:	6b ab       	std	Y+51, r22	; 0x33
     d24:	7c ab       	std	Y+52, r23	; 0x34
     d26:	8d ab       	std	Y+53, r24	; 0x35
     d28:	9e ab       	std	Y+54, r25	; 0x36
     d2a:	eb a9       	ldd	r30, Y+51	; 0x33
     d2c:	fc a9       	ldd	r31, Y+52	; 0x34
     d2e:	fc 87       	std	Y+12, r31	; 0x0c
     d30:	eb 87       	std	Y+11, r30	; 0x0b

00000d32 <.L67>:
     d32:	8b 85       	ldd	r24, Y+11	; 0x0b
     d34:	9c 85       	ldd	r25, Y+12	; 0x0c
     d36:	98 8b       	std	Y+16, r25	; 0x10
     d38:	8f 87       	std	Y+15, r24	; 0x0f

00000d3a <.LBB46>:
     d3a:	8f 85       	ldd	r24, Y+15	; 0x0f
     d3c:	98 89       	ldd	r25, Y+16	; 0x10

00000d3e <.L1^B6>:
     d3e:	01 97       	sbiw	r24, 0x01	; 1
     d40:	f1 f7       	brne	.-4      	; 0xd3e <.L1^B6>
     d42:	98 8b       	std	Y+16, r25	; 0x10
     d44:	8f 87       	std	Y+15, r24	; 0x0f

00000d46 <.Loc.334>:
	...

00000d48 <.L72>:
        {
            _delay_ms(DEBOUNCE);
            if (!(PIN_Z1 & (1 << KNOP_Z1)))
     d48:	86 e2       	ldi	r24, 0x26	; 38
     d4a:	90 e0       	ldi	r25, 0x00	; 0
     d4c:	dc 01       	movw	r26, r24
     d4e:	8c 91       	ld	r24, X

00000d50 <.Loc.336>:
     d50:	88 2f       	mov	r24, r24
     d52:	90 e0       	ldi	r25, 0x00	; 0
     d54:	81 70       	andi	r24, 0x01	; 1
     d56:	99 27       	eor	r25, r25

00000d58 <.Loc.337>:
     d58:	00 97       	sbiw	r24, 0x00	; 0
     d5a:	09 f0       	breq	.+2      	; 0xd5e <.Loc.338>

00000d5c <L0^A>:
     d5c:	59 cf       	rjmp	.-334    	; 0xc10 <.L74>

00000d5e <.Loc.338>:
            {
                zmotoruit();
     d5e:	0e 94 d6 03 	call	0x7ac	; 0x7ac <zmotoruit>

00000d62 <.Loc.339>:
                magneetuit();
     d62:	0e 94 15 03 	call	0x62a	; 0x62a <magneetuit>

00000d66 <.Loc.340>:
                z1_gebruikt = 1;   //knop genegeerd vanaf nu
     d66:	81 e0       	ldi	r24, 0x01	; 1
     d68:	89 83       	std	Y+1, r24	; 0x01

00000d6a <.Loc.341>:
	...

00000d6c <.Loc.342>:
            }
        }
    }

    // Stap 2: Z-as omhoog
    zmotornegatief();
     d6c:	0e 94 02 04 	call	0x804	; 0x804 <zmotornegatief>

00000d70 <.L85>:

    while (1)
    {
        if (!z0_gebruikt && !(PIN_Z0 & (1 << KNOP_Z0)))
     d70:	8a 81       	ldd	r24, Y+2	; 0x02
     d72:	88 23       	and	r24, r24
     d74:	e9 f7       	brne	.-6      	; 0xd70 <.L85>

00000d76 <.Loc.344>:
     d76:	86 e2       	ldi	r24, 0x26	; 38
     d78:	90 e0       	ldi	r25, 0x00	; 0
     d7a:	fc 01       	movw	r30, r24
     d7c:	80 81       	ld	r24, Z

00000d7e <.Loc.345>:
     d7e:	88 2f       	mov	r24, r24
     d80:	90 e0       	ldi	r25, 0x00	; 0
     d82:	82 70       	andi	r24, 0x02	; 2
     d84:	99 27       	eor	r25, r25

00000d86 <.Loc.346>:
     d86:	00 97       	sbiw	r24, 0x00	; 0
     d88:	99 f7       	brne	.-26     	; 0xd70 <.L85>
     d8a:	80 e0       	ldi	r24, 0x00	; 0
     d8c:	90 e0       	ldi	r25, 0x00	; 0
     d8e:	a0 e2       	ldi	r26, 0x20	; 32
     d90:	b1 e4       	ldi	r27, 0x41	; 65
     d92:	89 8b       	std	Y+17, r24	; 0x11
     d94:	9a 8b       	std	Y+18, r25	; 0x12
     d96:	ab 8b       	std	Y+19, r26	; 0x13
     d98:	bc 8b       	std	Y+20, r27	; 0x14

00000d9a <.LBB48>:
	__tmp = ((F_CPU) / 4e3) * __ms;
     d9a:	20 e0       	ldi	r18, 0x00	; 0
     d9c:	30 e0       	ldi	r19, 0x00	; 0
     d9e:	4a e7       	ldi	r20, 0x7A	; 122
     da0:	55 e4       	ldi	r21, 0x45	; 69
     da2:	69 89       	ldd	r22, Y+17	; 0x11
     da4:	7a 89       	ldd	r23, Y+18	; 0x12
     da6:	8b 89       	ldd	r24, Y+19	; 0x13
     da8:	9c 89       	ldd	r25, Y+20	; 0x14
     daa:	0e 94 12 08 	call	0x1024	; 0x1024 <__mulsf3>
     dae:	6f ab       	std	Y+55, r22	; 0x37
     db0:	78 af       	std	Y+56, r23	; 0x38
     db2:	89 af       	std	Y+57, r24	; 0x39
     db4:	9a af       	std	Y+58, r25	; 0x3a
     db6:	8f a9       	ldd	r24, Y+55	; 0x37
     db8:	98 ad       	ldd	r25, Y+56	; 0x38
     dba:	a9 ad       	ldd	r26, Y+57	; 0x39
     dbc:	ba ad       	ldd	r27, Y+58	; 0x3a
     dbe:	8d 8b       	std	Y+21, r24	; 0x15
     dc0:	9e 8b       	std	Y+22, r25	; 0x16
     dc2:	af 8b       	std	Y+23, r26	; 0x17
     dc4:	b8 8f       	std	Y+24, r27	; 0x18

00000dc6 <.Loc.348>:
	if (__tmp < 1.0)
     dc6:	20 e0       	ldi	r18, 0x00	; 0
     dc8:	30 e0       	ldi	r19, 0x00	; 0
     dca:	40 e8       	ldi	r20, 0x80	; 128
     dcc:	5f e3       	ldi	r21, 0x3F	; 63
     dce:	6d 89       	ldd	r22, Y+21	; 0x15
     dd0:	7e 89       	ldd	r23, Y+22	; 0x16
     dd2:	8f 89       	ldd	r24, Y+23	; 0x17
     dd4:	98 8d       	ldd	r25, Y+24	; 0x18
     dd6:	0e 94 8c 07 	call	0xf18	; 0xf18 <__cmpsf2>
     dda:	88 23       	and	r24, r24
     ddc:	2c f4       	brge	.+10     	; 0xde8 <.L92>

00000dde <.Loc.349>:
		__ticks = 1;
     dde:	81 e0       	ldi	r24, 0x01	; 1
     de0:	90 e0       	ldi	r25, 0x00	; 0
     de2:	9a 8f       	std	Y+26, r25	; 0x1a
     de4:	89 8f       	std	Y+25, r24	; 0x19
     de6:	5e c0       	rjmp	.+188    	; 0xea4 <.L78>

00000de8 <.L92>:
	else if (__tmp > 65535)
     de8:	20 e0       	ldi	r18, 0x00	; 0
     dea:	3f ef       	ldi	r19, 0xFF	; 255
     dec:	4f e7       	ldi	r20, 0x7F	; 127
     dee:	57 e4       	ldi	r21, 0x47	; 71
     df0:	6d 89       	ldd	r22, Y+21	; 0x15
     df2:	7e 89       	ldd	r23, Y+22	; 0x16
     df4:	8f 89       	ldd	r24, Y+23	; 0x17
     df6:	98 8d       	ldd	r25, Y+24	; 0x18
     df8:	0e 94 0d 08 	call	0x101a	; 0x101a <__gesf2>
     dfc:	88 23       	and	r24, r24
     dfe:	09 f0       	breq	.+2      	; 0xe02 <L0^A>

00000e00 <L0^A>:
     e00:	0c f4       	brge	.+2      	; 0xe04 <.Loc.351>

00000e02 <L0^A>:
     e02:	3e c0       	rjmp	.+124    	; 0xe80 <.L93>

00000e04 <.Loc.351>:
		__ticks = (uint16_t) (__ms * 10.0);
     e04:	20 e0       	ldi	r18, 0x00	; 0
     e06:	30 e0       	ldi	r19, 0x00	; 0
     e08:	40 e2       	ldi	r20, 0x20	; 32
     e0a:	51 e4       	ldi	r21, 0x41	; 65
     e0c:	69 89       	ldd	r22, Y+17	; 0x11
     e0e:	7a 89       	ldd	r23, Y+18	; 0x12
     e10:	8b 89       	ldd	r24, Y+19	; 0x13
     e12:	9c 89       	ldd	r25, Y+20	; 0x14
     e14:	0e 94 12 08 	call	0x1024	; 0x1024 <__mulsf3>
     e18:	6b af       	std	Y+59, r22	; 0x3b
     e1a:	7c af       	std	Y+60, r23	; 0x3c
     e1c:	8d af       	std	Y+61, r24	; 0x3d
     e1e:	9e af       	std	Y+62, r25	; 0x3e
     e20:	8b ad       	ldd	r24, Y+59	; 0x3b
     e22:	9c ad       	ldd	r25, Y+60	; 0x3c
     e24:	ad ad       	ldd	r26, Y+61	; 0x3d
     e26:	be ad       	ldd	r27, Y+62	; 0x3e
     e28:	8b a3       	std	Y+35, r24	; 0x23
     e2a:	9c a3       	std	Y+36, r25	; 0x24
     e2c:	ad a3       	std	Y+37, r26	; 0x25
     e2e:	be a3       	std	Y+38, r27	; 0x26

00000e30 <.Loc.352>:
     e30:	6b a1       	ldd	r22, Y+35	; 0x23
     e32:	7c a1       	ldd	r23, Y+36	; 0x24
     e34:	8d a1       	ldd	r24, Y+37	; 0x25
     e36:	9e a1       	ldd	r25, Y+38	; 0x26
     e38:	0e 94 91 07 	call	0xf22	; 0xf22 <__fixunssfsi>
     e3c:	23 96       	adiw	r28, 0x03	; 3
     e3e:	6c af       	std	Y+60, r22	; 0x3c
     e40:	7d af       	std	Y+61, r23	; 0x3d
     e42:	8e af       	std	Y+62, r24	; 0x3e
     e44:	9f af       	std	Y+63, r25	; 0x3f
     e46:	23 97       	sbiw	r28, 0x03	; 3
     e48:	21 96       	adiw	r28, 0x01	; 1
     e4a:	ae ad       	ldd	r26, Y+62	; 0x3e
     e4c:	bf ad       	ldd	r27, Y+63	; 0x3f
     e4e:	21 97       	sbiw	r28, 0x01	; 1
     e50:	ba 8f       	std	Y+26, r27	; 0x1a
     e52:	a9 8f       	std	Y+25, r26	; 0x19

00000e54 <.Loc.353>:
		while(__ticks)
     e54:	10 c0       	rjmp	.+32     	; 0xe76 <.L81>

00000e56 <.L82>:
     e56:	80 e9       	ldi	r24, 0x90	; 144
     e58:	91 e0       	ldi	r25, 0x01	; 1
     e5a:	9c 8f       	std	Y+28, r25	; 0x1c
     e5c:	8b 8f       	std	Y+27, r24	; 0x1b

00000e5e <.LBB50>:
     e5e:	8b 8d       	ldd	r24, Y+27	; 0x1b
     e60:	9c 8d       	ldd	r25, Y+28	; 0x1c

00000e62 <.L1^B7>:
     e62:	01 97       	sbiw	r24, 0x01	; 1
     e64:	f1 f7       	brne	.-4      	; 0xe62 <.L1^B7>
     e66:	9c 8f       	std	Y+28, r25	; 0x1c
     e68:	8b 8f       	std	Y+27, r24	; 0x1b

00000e6a <.Loc.355>:
	...

00000e6c <.LBE50>:
			__ticks --;
     e6c:	89 8d       	ldd	r24, Y+25	; 0x19
     e6e:	9a 8d       	ldd	r25, Y+26	; 0x1a
     e70:	01 97       	sbiw	r24, 0x01	; 1
     e72:	9a 8f       	std	Y+26, r25	; 0x1a
     e74:	89 8f       	std	Y+25, r24	; 0x19

00000e76 <.L81>:
		while(__ticks)
     e76:	89 8d       	ldd	r24, Y+25	; 0x19
     e78:	9a 8d       	ldd	r25, Y+26	; 0x1a
     e7a:	00 97       	sbiw	r24, 0x00	; 0
     e7c:	61 f7       	brne	.-40     	; 0xe56 <.L82>

00000e7e <.Loc.358>:
		return;
     e7e:	1d c0       	rjmp	.+58     	; 0xeba <.L83>

00000e80 <.L93>:
		__ticks = (uint16_t)__tmp;
     e80:	6d 89       	ldd	r22, Y+21	; 0x15
     e82:	7e 89       	ldd	r23, Y+22	; 0x16
     e84:	8f 89       	ldd	r24, Y+23	; 0x17
     e86:	98 8d       	ldd	r25, Y+24	; 0x18
     e88:	0e 94 91 07 	call	0xf22	; 0xf22 <__fixunssfsi>
     e8c:	27 96       	adiw	r28, 0x07	; 7
     e8e:	6c af       	std	Y+60, r22	; 0x3c
     e90:	7d af       	std	Y+61, r23	; 0x3d
     e92:	8e af       	std	Y+62, r24	; 0x3e
     e94:	9f af       	std	Y+63, r25	; 0x3f
     e96:	27 97       	sbiw	r28, 0x07	; 7
     e98:	25 96       	adiw	r28, 0x05	; 5
     e9a:	ee ad       	ldd	r30, Y+62	; 0x3e
     e9c:	ff ad       	ldd	r31, Y+63	; 0x3f
     e9e:	25 97       	sbiw	r28, 0x05	; 5
     ea0:	fa 8f       	std	Y+26, r31	; 0x1a
     ea2:	e9 8f       	std	Y+25, r30	; 0x19

00000ea4 <.L78>:
     ea4:	89 8d       	ldd	r24, Y+25	; 0x19
     ea6:	9a 8d       	ldd	r25, Y+26	; 0x1a
     ea8:	9e 8f       	std	Y+30, r25	; 0x1e
     eaa:	8d 8f       	std	Y+29, r24	; 0x1d

00000eac <.LBB52>:
     eac:	8d 8d       	ldd	r24, Y+29	; 0x1d
     eae:	9e 8d       	ldd	r25, Y+30	; 0x1e

00000eb0 <.L1^B8>:
     eb0:	01 97       	sbiw	r24, 0x01	; 1
     eb2:	f1 f7       	brne	.-4      	; 0xeb0 <.L1^B8>
     eb4:	9e 8f       	std	Y+30, r25	; 0x1e
     eb6:	8d 8f       	std	Y+29, r24	; 0x1d

00000eb8 <.Loc.361>:
	...

00000eba <.L83>:
        {
            _delay_ms(DEBOUNCE);
            if (!(PIN_Z0 & (1 << KNOP_Z0)))
     eba:	86 e2       	ldi	r24, 0x26	; 38
     ebc:	90 e0       	ldi	r25, 0x00	; 0
     ebe:	dc 01       	movw	r26, r24
     ec0:	8c 91       	ld	r24, X

00000ec2 <.Loc.363>:
     ec2:	88 2f       	mov	r24, r24
     ec4:	90 e0       	ldi	r25, 0x00	; 0
     ec6:	82 70       	andi	r24, 0x02	; 2
     ec8:	99 27       	eor	r25, r25

00000eca <.Loc.364>:
     eca:	00 97       	sbiw	r24, 0x00	; 0
     ecc:	09 f0       	breq	.+2      	; 0xed0 <.Loc.365>

00000ece <L0^A>:
     ece:	50 cf       	rjmp	.-352    	; 0xd70 <.L85>

00000ed0 <.Loc.365>:
            {
                zmotoruit();
     ed0:	0e 94 d6 03 	call	0x7ac	; 0x7ac <zmotoruit>

00000ed4 <.Loc.366>:
                z0_gebruikt = 1; //knop genegeerd vannaf nu
     ed4:	81 e0       	ldi	r24, 0x01	; 1
     ed6:	8a 83       	std	Y+2, r24	; 0x02

00000ed8 <.Loc.367>:
	...

00000eda <.Loc.368>:
                break;
            }
        }
    }
}
     eda:	00 00       	nop
     edc:	ca 5b       	subi	r28, 0xBA	; 186
     ede:	df 4f       	sbci	r29, 0xFF	; 255
     ee0:	0f b6       	in	r0, 0x3f	; 63
     ee2:	f8 94       	cli
     ee4:	de bf       	out	0x3e, r29	; 62
     ee6:	0f be       	out	0x3f, r0	; 63
     ee8:	cd bf       	out	0x3d, r28	; 61
     eea:	df 91       	pop	r29
     eec:	cf 91       	pop	r28
     eee:	08 95       	ret

00000ef0 <main>:

int main(void)
{
     ef0:	cf 93       	push	r28
     ef2:	df 93       	push	r29
     ef4:	cd b7       	in	r28, 0x3d	; 61
     ef6:	de b7       	in	r29, 0x3e	; 62

00000ef8 <.Loc.370>:
    config();
     ef8:	0e 94 88 00 	call	0x110	; 0x110 <config>

00000efc <.Loc.371>:
    ybeweging(2);
     efc:	82 e0       	ldi	r24, 0x02	; 2
     efe:	90 e0       	ldi	r25, 0x00	; 0
     f00:	0e 94 2e 04 	call	0x85c	; 0x85c <ybeweging>

00000f04 <.Loc.372>:
    bewegingoppak();
     f04:	0e 94 7a 04 	call	0x8f4	; 0x8f4 <bewegingoppak>

00000f08 <.Loc.373>:
    ybeweging(4);
     f08:	84 e0       	ldi	r24, 0x04	; 4
     f0a:	90 e0       	ldi	r25, 0x00	; 0
     f0c:	0e 94 2e 04 	call	0x85c	; 0x85c <ybeweging>

00000f10 <.Loc.374>:
    bewegingneerzet();
     f10:	0e 94 f9 05 	call	0xbf2	; 0xbf2 <bewegingneerzet>

00000f14 <.L96>:
    while(1){};
     f14:	00 00       	nop
     f16:	fe cf       	rjmp	.-4      	; 0xf14 <.L96>

00000f18 <__cmpsf2>:
     f18:	0e 94 c0 07 	call	0xf80	; 0xf80 <__fp_cmp>
     f1c:	08 f4       	brcc	.+2      	; 0xf20 <.L1^B1>
     f1e:	81 e0       	ldi	r24, 0x01	; 1

00000f20 <.L1^B1>:
     f20:	08 95       	ret

00000f22 <__fixunssfsi>:
     f22:	0e 94 ec 07 	call	0xfd8	; 0xfd8 <__fp_splitA>
     f26:	88 f0       	brcs	.+34     	; 0xf4a <.L_err>
     f28:	9f 57       	subi	r25, 0x7F	; 127
     f2a:	98 f0       	brcs	.+38     	; 0xf52 <.L_zr>
     f2c:	b9 2f       	mov	r27, r25
     f2e:	99 27       	eor	r25, r25
     f30:	b7 51       	subi	r27, 0x17	; 23
     f32:	b0 f0       	brcs	.+44     	; 0xf60 <.L4^B1>
     f34:	e1 f0       	breq	.+56     	; 0xf6e <.L_sign>

00000f36 <.L1^B1>:
     f36:	66 0f       	add	r22, r22
     f38:	77 1f       	adc	r23, r23
     f3a:	88 1f       	adc	r24, r24
     f3c:	99 1f       	adc	r25, r25
     f3e:	1a f0       	brmi	.+6      	; 0xf46 <.L2^B1>
     f40:	ba 95       	dec	r27
     f42:	c9 f7       	brne	.-14     	; 0xf36 <.L1^B1>
     f44:	14 c0       	rjmp	.+40     	; 0xf6e <.L_sign>

00000f46 <.L2^B1>:
     f46:	b1 30       	cpi	r27, 0x01	; 1
     f48:	91 f0       	breq	.+36     	; 0xf6e <.L_sign>

00000f4a <.L_err>:
     f4a:	0e 94 06 08 	call	0x100c	; 0x100c <__fp_zero>
     f4e:	b1 e0       	ldi	r27, 0x01	; 1
     f50:	08 95       	ret

00000f52 <.L_zr>:
     f52:	0c 94 06 08 	jmp	0x100c	; 0x100c <__fp_zero>

00000f56 <.L3^B1>:
     f56:	67 2f       	mov	r22, r23
     f58:	78 2f       	mov	r23, r24
     f5a:	88 27       	eor	r24, r24
     f5c:	b8 5f       	subi	r27, 0xF8	; 248
     f5e:	39 f0       	breq	.+14     	; 0xf6e <.L_sign>

00000f60 <.L4^B1>:
     f60:	b9 3f       	cpi	r27, 0xF9	; 249
     f62:	cc f3       	brlt	.-14     	; 0xf56 <.L3^B1>

00000f64 <.L5^B1>:
     f64:	86 95       	lsr	r24
     f66:	77 95       	ror	r23
     f68:	67 95       	ror	r22
     f6a:	b3 95       	inc	r27
     f6c:	d9 f7       	brne	.-10     	; 0xf64 <.L5^B1>

00000f6e <.L_sign>:
     f6e:	3e f4       	brtc	.+14     	; 0xf7e <.L6^B1>
     f70:	90 95       	com	r25
     f72:	80 95       	com	r24
     f74:	70 95       	com	r23
     f76:	61 95       	neg	r22
     f78:	7f 4f       	sbci	r23, 0xFF	; 255
     f7a:	8f 4f       	sbci	r24, 0xFF	; 255
     f7c:	9f 4f       	sbci	r25, 0xFF	; 255

00000f7e <.L6^B1>:
     f7e:	08 95       	ret

00000f80 <__fp_cmp>:
     f80:	99 0f       	add	r25, r25
     f82:	00 08       	sbc	r0, r0
     f84:	55 0f       	add	r21, r21
     f86:	aa 0b       	sbc	r26, r26
     f88:	e0 e8       	ldi	r30, 0x80	; 128
     f8a:	fe ef       	ldi	r31, 0xFE	; 254
     f8c:	16 16       	cp	r1, r22
     f8e:	17 06       	cpc	r1, r23
     f90:	e8 07       	cpc	r30, r24
     f92:	f9 07       	cpc	r31, r25
     f94:	c0 f0       	brcs	.+48     	; 0xfc6 <.L9^B1>
     f96:	12 16       	cp	r1, r18
     f98:	13 06       	cpc	r1, r19
     f9a:	e4 07       	cpc	r30, r20
     f9c:	f5 07       	cpc	r31, r21
     f9e:	98 f0       	brcs	.+38     	; 0xfc6 <.L9^B1>
     fa0:	62 1b       	sub	r22, r18
     fa2:	73 0b       	sbc	r23, r19
     fa4:	84 0b       	sbc	r24, r20
     fa6:	95 0b       	sbc	r25, r21
     fa8:	39 f4       	brne	.+14     	; 0xfb8 <.L1^B1>
     faa:	0a 26       	eor	r0, r26
     fac:	61 f0       	breq	.+24     	; 0xfc6 <.L9^B1>
     fae:	23 2b       	or	r18, r19
     fb0:	24 2b       	or	r18, r20
     fb2:	25 2b       	or	r18, r21
     fb4:	21 f4       	brne	.+8      	; 0xfbe <.L2^B1>
     fb6:	08 95       	ret

00000fb8 <.L1^B1>:
     fb8:	0a 26       	eor	r0, r26
     fba:	09 f4       	brne	.+2      	; 0xfbe <.L2^B1>
     fbc:	a1 40       	sbci	r26, 0x01	; 1

00000fbe <.L2^B1>:
     fbe:	a6 95       	lsr	r26
     fc0:	8f ef       	ldi	r24, 0xFF	; 255
     fc2:	81 1d       	adc	r24, r1
     fc4:	81 1d       	adc	r24, r1

00000fc6 <.L9^B1>:
     fc6:	08 95       	ret

00000fc8 <__fp_split3>:
     fc8:	57 fd       	sbrc	r21, 7
     fca:	90 58       	subi	r25, 0x80	; 128
     fcc:	44 0f       	add	r20, r20
     fce:	55 1f       	adc	r21, r21
     fd0:	59 f0       	breq	.+22     	; 0xfe8 <.L4^B1>
     fd2:	5f 3f       	cpi	r21, 0xFF	; 255
     fd4:	71 f0       	breq	.+28     	; 0xff2 <.L5^B1>

00000fd6 <.L1^B1>:
     fd6:	47 95       	ror	r20

00000fd8 <__fp_splitA>:
     fd8:	88 0f       	add	r24, r24
     fda:	97 fb       	bst	r25, 7
     fdc:	99 1f       	adc	r25, r25
     fde:	61 f0       	breq	.+24     	; 0xff8 <.L6^B1>
     fe0:	9f 3f       	cpi	r25, 0xFF	; 255
     fe2:	79 f0       	breq	.+30     	; 0x1002 <.L7^B1>

00000fe4 <.L3^B1>:
     fe4:	87 95       	ror	r24
     fe6:	08 95       	ret

00000fe8 <.L4^B1>:
     fe8:	12 16       	cp	r1, r18
     fea:	13 06       	cpc	r1, r19
     fec:	14 06       	cpc	r1, r20
     fee:	55 1f       	adc	r21, r21
     ff0:	f2 cf       	rjmp	.-28     	; 0xfd6 <.L1^B1>

00000ff2 <.L5^B1>:
     ff2:	46 95       	lsr	r20
     ff4:	f1 df       	rcall	.-30     	; 0xfd8 <__fp_splitA>
     ff6:	08 c0       	rjmp	.+16     	; 0x1008 <.L8^B1>

00000ff8 <.L6^B1>:
     ff8:	16 16       	cp	r1, r22
     ffa:	17 06       	cpc	r1, r23
     ffc:	18 06       	cpc	r1, r24
     ffe:	99 1f       	adc	r25, r25
    1000:	f1 cf       	rjmp	.-30     	; 0xfe4 <.L3^B1>

00001002 <.L7^B1>:
    1002:	86 95       	lsr	r24
    1004:	71 05       	cpc	r23, r1
    1006:	61 05       	cpc	r22, r1

00001008 <.L8^B1>:
    1008:	08 94       	sec
    100a:	08 95       	ret

0000100c <__fp_zero>:
    100c:	e8 94       	clt

0000100e <__fp_szero>:
    100e:	bb 27       	eor	r27, r27
    1010:	66 27       	eor	r22, r22
    1012:	77 27       	eor	r23, r23
    1014:	cb 01       	movw	r24, r22
    1016:	97 f9       	bld	r25, 7
    1018:	08 95       	ret

0000101a <__gesf2>:
    101a:	0e 94 c0 07 	call	0xf80	; 0xf80 <__fp_cmp>
    101e:	08 f4       	brcc	.+2      	; 0x1022 <.L1^B1>
    1020:	8f ef       	ldi	r24, 0xFF	; 255

00001022 <.L1^B1>:
    1022:	08 95       	ret

00001024 <__mulsf3>:
    1024:	0e 94 25 08 	call	0x104a	; 0x104a <__mulsf3x>
    1028:	0c 94 96 08 	jmp	0x112c	; 0x112c <__fp_round>

0000102c <.L^B1>:
    102c:	0e 94 88 08 	call	0x1110	; 0x1110 <__fp_pscA>
    1030:	38 f0       	brcs	.+14     	; 0x1040 <.L1^B1>
    1032:	0e 94 8f 08 	call	0x111e	; 0x111e <__fp_pscB>
    1036:	20 f0       	brcs	.+8      	; 0x1040 <.L1^B1>
    1038:	95 23       	and	r25, r21
    103a:	11 f0       	breq	.+4      	; 0x1040 <.L1^B1>
    103c:	0c 94 7f 08 	jmp	0x10fe	; 0x10fe <__fp_inf>

00001040 <.L1^B1>:
    1040:	0c 94 85 08 	jmp	0x110a	; 0x110a <__fp_nan>

00001044 <.L2^B1>:
    1044:	11 24       	eor	r1, r1
    1046:	0c 94 07 08 	jmp	0x100e	; 0x100e <__fp_szero>

0000104a <__mulsf3x>:
    104a:	0e 94 e4 07 	call	0xfc8	; 0xfc8 <__fp_split3>
    104e:	70 f3       	brcs	.-36     	; 0x102c <.L^B1>

00001050 <__mulsf3_pse>:
    1050:	95 9f       	mul	r25, r21
    1052:	c1 f3       	breq	.-16     	; 0x1044 <.L2^B1>
    1054:	95 0f       	add	r25, r21
    1056:	50 e0       	ldi	r21, 0x00	; 0
    1058:	55 1f       	adc	r21, r21
    105a:	62 9f       	mul	r22, r18
    105c:	f0 01       	movw	r30, r0
    105e:	72 9f       	mul	r23, r18
    1060:	bb 27       	eor	r27, r27
    1062:	f0 0d       	add	r31, r0
    1064:	b1 1d       	adc	r27, r1
    1066:	63 9f       	mul	r22, r19
    1068:	aa 27       	eor	r26, r26
    106a:	f0 0d       	add	r31, r0
    106c:	b1 1d       	adc	r27, r1
    106e:	aa 1f       	adc	r26, r26
    1070:	64 9f       	mul	r22, r20
    1072:	66 27       	eor	r22, r22
    1074:	b0 0d       	add	r27, r0
    1076:	a1 1d       	adc	r26, r1
    1078:	66 1f       	adc	r22, r22
    107a:	82 9f       	mul	r24, r18
    107c:	22 27       	eor	r18, r18
    107e:	b0 0d       	add	r27, r0
    1080:	a1 1d       	adc	r26, r1
    1082:	62 1f       	adc	r22, r18
    1084:	73 9f       	mul	r23, r19
    1086:	b0 0d       	add	r27, r0
    1088:	a1 1d       	adc	r26, r1
    108a:	62 1f       	adc	r22, r18
    108c:	83 9f       	mul	r24, r19
    108e:	a0 0d       	add	r26, r0
    1090:	61 1d       	adc	r22, r1
    1092:	22 1f       	adc	r18, r18
    1094:	74 9f       	mul	r23, r20
    1096:	33 27       	eor	r19, r19
    1098:	a0 0d       	add	r26, r0
    109a:	61 1d       	adc	r22, r1
    109c:	23 1f       	adc	r18, r19
    109e:	84 9f       	mul	r24, r20
    10a0:	60 0d       	add	r22, r0
    10a2:	21 1d       	adc	r18, r1
    10a4:	82 2f       	mov	r24, r18
    10a6:	76 2f       	mov	r23, r22
    10a8:	6a 2f       	mov	r22, r26
    10aa:	11 24       	eor	r1, r1
    10ac:	9f 57       	subi	r25, 0x7F	; 127
    10ae:	50 40       	sbci	r21, 0x00	; 0
    10b0:	9a f0       	brmi	.+38     	; 0x10d8 <.L13^B1>
    10b2:	f1 f0       	breq	.+60     	; 0x10f0 <.L15^B1>

000010b4 <.L10^B1>:
    10b4:	88 23       	and	r24, r24
    10b6:	4a f0       	brmi	.+18     	; 0x10ca <.L11^B1>
    10b8:	ee 0f       	add	r30, r30
    10ba:	ff 1f       	adc	r31, r31
    10bc:	bb 1f       	adc	r27, r27
    10be:	66 1f       	adc	r22, r22
    10c0:	77 1f       	adc	r23, r23
    10c2:	88 1f       	adc	r24, r24
    10c4:	91 50       	subi	r25, 0x01	; 1
    10c6:	50 40       	sbci	r21, 0x00	; 0
    10c8:	a9 f7       	brne	.-22     	; 0x10b4 <.L10^B1>

000010ca <.L11^B1>:
    10ca:	9e 3f       	cpi	r25, 0xFE	; 254
    10cc:	51 05       	cpc	r21, r1
    10ce:	80 f0       	brcs	.+32     	; 0x10f0 <.L15^B1>
    10d0:	0c 94 7f 08 	jmp	0x10fe	; 0x10fe <__fp_inf>

000010d4 <.L12^B1>:
    10d4:	0c 94 07 08 	jmp	0x100e	; 0x100e <__fp_szero>

000010d8 <.L13^B1>:
    10d8:	5f 3f       	cpi	r21, 0xFF	; 255
    10da:	e4 f3       	brlt	.-8      	; 0x10d4 <.L12^B1>
    10dc:	98 3e       	cpi	r25, 0xE8	; 232
    10de:	d4 f3       	brlt	.-12     	; 0x10d4 <.L12^B1>

000010e0 <.L14^B1>:
    10e0:	86 95       	lsr	r24
    10e2:	77 95       	ror	r23
    10e4:	67 95       	ror	r22
    10e6:	b7 95       	ror	r27
    10e8:	f7 95       	ror	r31
    10ea:	e7 95       	ror	r30
    10ec:	9f 5f       	subi	r25, 0xFF	; 255
    10ee:	c1 f7       	brne	.-16     	; 0x10e0 <.L14^B1>

000010f0 <.L15^B1>:
    10f0:	fe 2b       	or	r31, r30
    10f2:	88 0f       	add	r24, r24
    10f4:	91 1d       	adc	r25, r1
    10f6:	96 95       	lsr	r25
    10f8:	87 95       	ror	r24
    10fa:	97 f9       	bld	r25, 7
    10fc:	08 95       	ret

000010fe <__fp_inf>:
    10fe:	97 f9       	bld	r25, 7
    1100:	9f 67       	ori	r25, 0x7F	; 127
    1102:	80 e8       	ldi	r24, 0x80	; 128
    1104:	70 e0       	ldi	r23, 0x00	; 0
    1106:	60 e0       	ldi	r22, 0x00	; 0
    1108:	08 95       	ret

0000110a <__fp_nan>:
    110a:	9f ef       	ldi	r25, 0xFF	; 255
    110c:	80 ec       	ldi	r24, 0xC0	; 192
    110e:	08 95       	ret

00001110 <__fp_pscA>:
    1110:	00 24       	eor	r0, r0
    1112:	0a 94       	dec	r0
    1114:	16 16       	cp	r1, r22
    1116:	17 06       	cpc	r1, r23
    1118:	18 06       	cpc	r1, r24
    111a:	09 06       	cpc	r0, r25
    111c:	08 95       	ret

0000111e <__fp_pscB>:
    111e:	00 24       	eor	r0, r0
    1120:	0a 94       	dec	r0
    1122:	12 16       	cp	r1, r18
    1124:	13 06       	cpc	r1, r19
    1126:	14 06       	cpc	r1, r20
    1128:	05 06       	cpc	r0, r21
    112a:	08 95       	ret

0000112c <__fp_round>:
    112c:	09 2e       	mov	r0, r25
    112e:	03 94       	inc	r0
    1130:	00 0c       	add	r0, r0
    1132:	11 f4       	brne	.+4      	; 0x1138 <.L1^B1>
    1134:	88 23       	and	r24, r24
    1136:	52 f0       	brmi	.+20     	; 0x114c <.L3^B1>

00001138 <.L1^B1>:
    1138:	bb 0f       	add	r27, r27
    113a:	40 f4       	brcc	.+16     	; 0x114c <.L3^B1>
    113c:	bf 2b       	or	r27, r31
    113e:	11 f4       	brne	.+4      	; 0x1144 <.L2^B1>
    1140:	60 ff       	sbrs	r22, 0
    1142:	04 c0       	rjmp	.+8      	; 0x114c <.L3^B1>

00001144 <.L2^B1>:
    1144:	6f 5f       	subi	r22, 0xFF	; 255
    1146:	7f 4f       	sbci	r23, 0xFF	; 255
    1148:	8f 4f       	sbci	r24, 0xFF	; 255
    114a:	9f 4f       	sbci	r25, 0xFF	; 255

0000114c <.L3^B1>:
    114c:	08 95       	ret

0000114e <_exit>:
    114e:	f8 94       	cli

00001150 <__stop_program>:
    1150:	ff cf       	rjmp	.-2      	; 0x1150 <__stop_program>
